
clang/bios.clang.elf:	file format elf32-unknown

Disassembly of section .boot:

00000000 <_boot_header>:
       0: 80 02 00 00 00 00 00 00         ........
       8: 20 52 43 37 30 32 20 43          RC702 C
      10: 2d 42 49 4f 53 20 32 30         -BIOS 20
      18: 32 36 2d 30 35 2d 30 35         26-05-05
      20: 20 30 30 3a 34 33 20 2f          00:43 /
      28: 54 68 6f 72 62 6a 6f 65         Thorbjoe
      30: 72 6e 20 52 61 76 6e 20         rn Ravn 
      38: 41 6e 64 65 72 73 65 6e         Andersen
      40: 00 00 00 00 00 00 00 00         ........
      48: 00 00 00 00 00 00 00 00         ........
      50: 00 00 00 00 00 00 00 00         ........
      58: 00 00 00 00 00 00 00 00         ........
      60: 00 00 00 00 00 00 00 00         ........
      68: 00 00 00 00 00 00 00 00         ........
      70: 00 00 00 00 00 00 00 00         ........
      78: 00 00 00 00 00 00 00 00         ........

Disassembly of section .boot_data:

00000080 <_confi_on_disk>:
      80: 47 01 47 01 d7 01 d7 01         G.G.....
      88: 18 04 44 03 e1 05 60 01         ..D...`.
      90: 1b 18 02 10 04 44 03 e1         .....D..
      98: 05 60 01 1f 48 49 4a 4b         .`..HIJK
      a0: 4f 98 7a 6d 03 03 df 28         O.zm...(
      a8: 00 00 06 06 00 fa 00 08         ........
      b0: 08 20 ff ff ff ff ff ff         . ......
      b8: ff ff ff ff ff ff ff ff         ........
      c0: 02 02 00 00 d7 01 03 00         ........
      c8: 00 00 00 00 00 00 00 00         ........
      d0: 00 00 00 00 00 00 00 00         ........
      d8: 00 00 00 00 00 00 00 00         ........
      e0: 00 00 00 00 00 00 00 00         ........
      e8: 00 00 00 00 00 00 00 00         ........
      f0: 00 00 00 00 00 00 00 00         ........
      f8: 00 00 00 00 00 00 00 00         ........

00000100 <_conv_tables>:
     100: 00 01 02 03 04 05 06 07         ........
     108: 08 09 0a 0b 0c 0d 0e 0f         ........
     110: 10 11 12 13 14 15 16 17         ........
     118: 18 19 1a 1b 1c 1d 1e 1f         ........
     120: 20 21 22 23 24 25 26 27          !"#$%&'
     128: 28 29 2a 2b 2c 2d 2e 2f         ()*+,-./
     130: 30 31 32 33 34 35 36 37         01234567
     138: 38 39 3a 3b 3c 3d 3e 3f         89:;<=>?
     140: 40 41 42 43 44 45 46 47         @ABCDEFG
     148: 48 49 4a 4b 4c 4d 4e 4f         HIJKLMNO
     150: 50 51 52 53 54 55 56 57         PQRSTUVW
     158: 58 59 5a 5b 5c 5d 5e 5f         XYZ[\]^_
     160: 60 61 62 63 64 65 66 67         `abcdefg
     168: 68 69 6a 6b 6c 6d 6e 6f         hijklmno
     170: 70 71 72 73 74 75 76 77         pqrstuvw
     178: 78 79 7a 7b 7c 7d 7e 7f         xyz{|}~.
     180: 00 01 02 03 04 05 06 07         ........
     188: 08 09 0a 0b 0c 0d 0e 0f         ........
     190: 10 11 12 13 14 15 16 17         ........
     198: 18 19 1a 1b 1c 1d 1e 1f         ........
     1a0: 20 21 22 23 24 25 26 27          !"#$%&'
     1a8: 28 29 2a 2b 2c 2d 2e 2f         ()*+,-./
     1b0: 30 31 32 33 34 35 36 37         01234567
     1b8: 38 39 3a 3b 3c 3d 3e 3f         89:;<=>?
     1c0: 40 41 42 43 44 45 46 47         @ABCDEFG
     1c8: 48 49 4a 4b 4c 4d 4e 4f         HIJKLMNO
     1d0: 50 51 52 53 54 55 56 57         PQRSTUVW
     1d8: 58 59 5a 5b 5c 5d 5e 5f         XYZ[\]^_
     1e0: 60 61 62 63 64 65 66 67         `abcdefg
     1e8: 68 69 6a 6b 6c 6d 6e 6f         hijklmno
     1f0: 70 71 72 73 74 75 76 77         pqrstuvw
     1f8: 78 79 7a 7b 7c 7d 7e 7f         xyz{|}~.
     200: 80 01 82 03 04 05 86 87         ........
     208: 08 09 0a 0b 0c 0d 0e 8f         ........
     210: 10 91 92 93 14 15 96 97         ........
     218: 18 19 1a 1b 1c 9d 1e 9f         ........
     220: 20 31 32 33 34 35 36 37          1234567
     228: 38 39 aa 30 2d ad 2e 8b         89.0-...
     230: 30 31 32 33 34 35 36 37         01234567
     238: 38 39 ba 30 2d bd 2e 83         89.0-...
     240: 12 86 c2 c3 c4 05 82 c7         ........
     248: 08 c9 0a 84 85 cd ce cf         ........
     250: 81 d1 87 d3 d4 d5 80 d7         ........
     258: 18 d9 1a db dc dd de 30         .......0
     260: e0 8e e2 e3 e4 e5 8a e7         ........
     268: e8 e9 ea 8c 8d ed ee ef         ........
     270: 89 f1 8f f3 f4 f5 88 f7         ........
     278: f8 f9 fa fb fc fd fe 7f         ........

Disassembly of section .boot_code:

00000280 <_coldboot>:
     280: f3           	di
     281: cd 90 02     	call	$290
     284: cd c7 02     	call	$2c7
     287: cd d8 02     	call	$2d8
     28a: 31 00 f5     	ld	sp,$f500
     28d: c3 8f da     	jp	$da8f

00000290 <_relocate_bios>:
; {
     290: 11 db ec     	ld	de,$ecdb
;     _bss_compiler_head = 0;
     293: af           	xor	a
     294: 21 da ec     	ld	hl,$ecda
     297: 77           	ld	(hl),a
;     memcpy(&_bss_compiler_head + 1,
     298: 01 03 07     	ld	bc,$703
     29b: 78           	ld	a,b
     29c: b1           	or	c
     29d: 28 02        	jr	z,$2a1
     29f: ed b0        	ldir
;     memcpy((void *)BIOS_BASE,
     2a1: 21 71 04     	ld	hl,$471
     2a4: 11 00 da     	ld	de,$da00
     2a7: 01 da 12     	ld	bc,$12da
     2aa: 78           	ld	a,b
     2ab: b1           	or	c
     2ac: 28 02        	jr	z,$2b0
     2ae: ed b0        	ldir
;     memcpy((void *)CFG_ADDR, confi_on_disk, 128);
     2b0: 21 80 00     	ld	hl,$80
     2b3: 11 00 d5     	ld	de,$d500
     2b6: 01 80 00     	ld	bc,$80
     2b9: ed b0        	ldir
;     memcpy((void *)CONV_ADDR, conv_tables, 384);
     2bb: 21 00 01     	ld	hl,$100
     2be: 11 80 f6     	ld	de,$f680
     2c1: 01 80 01     	ld	bc,$180
     2c4: ed b0        	ldir
; }
     2c6: c9           	ret

000002c7 <_verify_relocation>:
;     if (_sentinel_addr != SENTINEL_VALUE)
     2c7: 2a d8 ec     	ld	hl,($ecd8)              ; 0xecd8 <__sentinel_addr>
     2ca: 7c           	ld	a,h
     2cb: ee 18        	xor	$18
     2cd: 57           	ld	d,a
     2ce: 7d           	ld	a,l
     2cf: ee 42        	xor	$42
     2d1: b2           	or	d
     2d2: 20 01        	jr	nz,$2d5
; }
     2d4: c9           	ret
; static inline void intrinsic_halt(void) { __asm__ volatile("halt"); }
     2d5: 76           	halt
;         for (;;) hal_halt();  /* hang — display will show nothing */
     2d6: 18 fd        	jr	$2d5

000002d8 <_bios_hw_init>:
;     memcpy((void *)IVT_ADDR, ivt_template, sizeof(ivt_template));
     2d8: 21 24 00     	ld	hl,$24
     2db: e5           	push	hl
     2dc: 21 00 f6     	ld	hl,$f600
     2df: 11 4d 04     	ld	de,$44d
     2e2: cd 11 eb     	call	$eb11
;     set_i_reg(IVT_ADDR >> 8);
     2e5: 3e f6        	ld	a,$f6
     2e7: cd aa ea     	call	$eaaa
; static inline void intrinsic_im_2(void) { __asm__ volatile("im 2"); }
     2ea: ed 5e        	im	2
; DEFPORT(pio_a_ctrl,   PORT_PIO_A_CTRL)
     2ec: 3e 20        	ld	a,$20
     2ee: d3 12        	out	($12),a
; DEFPORT(pio_b_ctrl,   PORT_PIO_B_CTRL)
     2f0: 3e 22        	ld	a,$22
     2f2: d3 13        	out	($13),a
; DEFPORT(pio_a_ctrl,   PORT_PIO_A_CTRL)
     2f4: 3e 4f        	ld	a,$4f
     2f6: d3 12        	out	($12),a
; DEFPORT(pio_b_ctrl,   PORT_PIO_B_CTRL)
     2f8: 3e 0f        	ld	a,$f
     2fa: d3 13        	out	($13),a
; DEFPORT(pio_a_ctrl,   PORT_PIO_A_CTRL)
     2fc: 3e 83        	ld	a,$83
     2fe: d3 12        	out	($12),a
; DEFPORT(pio_b_ctrl,   PORT_PIO_B_CTRL)
     300: d3 13        	out	($13),a
; DEFPORT(ctc0,         PORT_CTC0)
     302: af           	xor	a
     303: d3 0c        	out	($c),a
;     port_out(ctc0, CFG.ctc_mode0);
     305: 3a 00 d5     	ld	a,($d500)               ; 0xd500 <__boot_end+0xd08f>
; DEFPORT(ctc0,         PORT_CTC0)
     308: d3 0c        	out	($c),a
;     port_out(ctc0, CFG.ctc_count0);
     30a: 3a 01 d5     	ld	a,($d501)               ; 0xd501 <__boot_end+0xd090>
; DEFPORT(ctc0,         PORT_CTC0)
     30d: d3 0c        	out	($c),a
;     port_out(ctc1, CFG.ctc_mode1);
     30f: 3a 02 d5     	ld	a,($d502)               ; 0xd502 <__boot_end+0xd091>
; DEFPORT(ctc1,         PORT_CTC1)
     312: d3 0d        	out	($d),a
;     port_out(ctc1, CFG.ctc_count1);
     314: 3a 03 d5     	ld	a,($d503)               ; 0xd503 <__boot_end+0xd092>
; DEFPORT(ctc1,         PORT_CTC1)
     317: d3 0d        	out	($d),a
;     port_out(ctc2, CFG.ctc_mode2);
     319: 3a 04 d5     	ld	a,($d504)               ; 0xd504 <__boot_end+0xd093>
; DEFPORT(ctc2,         PORT_CTC2)
     31c: d3 0e        	out	($e),a
;     port_out(ctc2, CFG.ctc_count2);
     31e: 3a 05 d5     	ld	a,($d505)               ; 0xd505 <__boot_end+0xd094>
; DEFPORT(ctc2,         PORT_CTC2)
     321: d3 0e        	out	($e),a
;     port_out(ctc3, CFG.ctc_mode3);
     323: 3a 06 d5     	ld	a,($d506)               ; 0xd506 <__boot_end+0xd095>
; DEFPORT(ctc3,         PORT_CTC3)
     326: d3 0f        	out	($f),a
;     port_out(ctc3, CFG.ctc_count3);
     328: 3a 07 d5     	ld	a,($d507)               ; 0xd507 <__boot_end+0xd096>
; DEFPORT(ctc3,         PORT_CTC3)
     32b: d3 0f        	out	($f),a
;     ASM_VOLATILE(
     32d: 21 08 d5     	ld	hl,$d508
     330: 0e 0a        	ld	c,$a
     332: 06 09        	ld	b,$9
     334: ed b3        	otir
     336: 0e 0b        	ld	c,$b
     338: 06 0b        	ld	b,$b
     33a: ed b3        	otir
; DEFPORT(sio_a_ctrl,   PORT_SIO_A_CTRL)
     33c: db 0a        	in	a,($a)
     33e: 3e 01        	ld	a,$1
     340: d3 0a        	out	($a),a
     342: db 0a        	in	a,($a)
; DEFPORT(sio_b_ctrl,   PORT_SIO_B_CTRL)
     344: db 0b        	in	a,($b)
     346: 3e 01        	ld	a,$1
     348: d3 0b        	out	($b),a
     34a: db 0b        	in	a,($b)
; DEFPORT(dma_cmd,      PORT_DMA_CMD)
     34c: 3e 20        	ld	a,$20
     34e: d3 f8        	out	($f8),a
; DEFPORT(dma_mode,     PORT_DMA_MODE)
     350: 3e 48        	ld	a,$48
     352: d3 fb        	out	($fb),a
     354: 3e 4a        	ld	a,$4a
     356: d3 fb        	out	($fb),a
     358: 3e 4b        	ld	a,$4b
     35a: d3 fb        	out	($fb),a
; DEFPORT(fdc_status,   PORT_FDC_STATUS)
     35c: db 04        	in	a,($4)
;     while (port_in(fdc_status) & (FDC_MSR_CB | FDC_MSR_DRIVE_SEEKING))
     35e: e6 1f        	and	$1f
     360: 20 fa        	jr	nz,$35c
;     fdc_write(0x03);            /* SPECIFY command */
     362: 3e 03        	ld	a,$3
     364: cd 71 da     	call	$da71
;     fdc_write(0xDF);            /* step rate 3ms, head unload 240ms */
     367: 3e df        	ld	a,$df
     369: cd 71 da     	call	$da71
;     fdc_write(0x28);            /* head load 40ms, DMA mode */
     36c: 3e 28        	ld	a,$28
     36e: cd 71 da     	call	$da71
;     memset(DISPLAY_ROW(0), ' ', sizeof(Display));
     371: 21 d0 07     	ld	hl,$7d0
     374: e5           	push	hl
     375: 21 00 f8     	ld	hl,$f800
     378: 11 20 00     	ld	de,$20
     37b: cd 1d eb     	call	$eb1d
;     memset((void *)(WORK_ADDR + 1), 0, 0xFFFF - WORK_ADDR);
     37e: 21 2f 00     	ld	hl,$2f
     381: e5           	push	hl
     382: 21 d1 ff     	ld	hl,$ffd1
     385: 11 00 00     	ld	de,$0
     388: cd 1d eb     	call	$eb1d
; DEFPORT(crt_cmd,      PORT_CRT_CMD)
     38b: af           	xor	a
     38c: d3 01        	out	($1),a
;     port_out(crt_param, CFG.par[0]);   /* chars/row */
     38e: 3a 20 d5     	ld	a,($d520)               ; 0xd520 <__boot_end+0xd0af>
; DEFPORT(crt_param,    PORT_CRT_PARAM)
     391: d3 00        	out	($0),a
;     port_out(crt_param, CFG.par[1]);   /* rows/frame */
     393: 3a 21 d5     	ld	a,($d521)               ; 0xd521 <__boot_end+0xd0b0>
; DEFPORT(crt_param,    PORT_CRT_PARAM)
     396: d3 00        	out	($0),a
;     port_out(crt_param, CFG.par[2]);   /* lines/char + underline */
     398: 3a 22 d5     	ld	a,($d522)               ; 0xd522 <__boot_end+0xd0b1>
; DEFPORT(crt_param,    PORT_CRT_PARAM)
     39b: d3 00        	out	($0),a
;     port_out(crt_param, CFG.par[3]);   /* cursor format */
     39d: 3a 23 d5     	ld	a,($d523)               ; 0xd523 <__boot_end+0xd0b2>
; DEFPORT(crt_param,    PORT_CRT_PARAM)
     3a0: d3 00        	out	($0),a
; DEFPORT(crt_cmd,      PORT_CRT_CMD)
     3a2: 3e 80        	ld	a,$80
     3a4: d3 01        	out	($1),a
; DEFPORT(crt_param,    PORT_CRT_PARAM)
     3a6: af           	xor	a
     3a7: d3 00        	out	($0),a
     3a9: d3 00        	out	($0),a
; DEFPORT(crt_cmd,      PORT_CRT_CMD)
     3ab: 3e e0        	ld	a,$e0
     3ad: d3 01        	out	($1),a
     3af: 3e 23        	ld	a,$23
     3b1: d3 01        	out	($1),a
;     wr5a = CFG.sioa[6] & 0x60;  /* SIO-A bits/char from WR5 */
     3b3: 3a 0e d5     	ld	a,($d50e)               ; 0xd50e <__boot_end+0xd09d>
     3b6: e6 60        	and	$60
     3b8: 32 34 da     	ld	($da34),a               ; 0xda34 <_bios_jump_vector_table+0x34>
;     wr5b = CFG.siob[6] & 0x60;  /* SIO-B bits/char from WR5 (test console order) */
     3bb: 3a 17 d5     	ld	a,($d517)               ; 0xd517 <__boot_end+0xd0a6>
     3be: e6 60        	and	$60
     3c0: 32 35 da     	ld	($da35),a               ; 0xda35 <_bios_jump_vector_table+0x35>
;     adrmod = xyflg;              /* copy addressing mode (via CFG macro) */
     3c3: 3a 2c d5     	ld	a,($d52c)               ; 0xd52c <__boot_end+0xd0bb>
     3c6: 32 33 da     	ld	($da33),a               ; 0xda33 <_bios_jump_vector_table+0x33>
;     stptim_var = CFG.stptim;
     3c9: 2a 2d d5     	ld	hl,($d52d)              ; 0xd52d <__boot_end+0xd0bc>
     3cc: 22 ea ff     	ld	($ffea),hl              ; 0xffea <__sfrend_sec_rw+0xc0c>
;         memcpy((void *)fd0, (const void *)CFG.infd, sizeof(fd0));
     3cf: 21 10 00     	ld	hl,$10
     3d2: e5           	push	hl
     3d3: 21 37 da     	ld	hl,$da37
     3d6: 11 2f d5     	ld	de,$d52f
     3d9: cd 11 eb     	call	$eb11
     3dc: 0e 00        	ld	c,$0
;     memset((void *)(WORK_ADDR + 1), 0, 0xFFFF - WORK_ADDR);
     3de: 11 00 00     	ld	de,$0
;         max_drive_num = 0;
     3e1: af           	xor	a
     3e2: 32 f2 ee     	ld	($eef2),a               ; 0xeef2 <_max_drive_num>
;         for (d = 0; d < 16; d++) {
     3e5: 7b           	ld	a,e
     3e6: fe 10        	cp	$10
     3e8: 28 13        	jr	z,$3fd
;             if (fd0[d] == 0xFF)
     3ea: 21 37 da     	ld	hl,$da37
     3ed: 19           	add	hl,de
     3ee: 7e           	ld	a,(hl)
     3ef: fe ff        	cp	$ff
     3f1: 28 0a        	jr	z,$3fd
;             max_drive_num = d;
     3f3: 6b           	ld	l,e
     3f4: 62           	ld	h,d
     3f5: 4d           	ld	c,l
     3f6: 7d           	ld	a,l
     3f7: 32 f2 ee     	ld	($eef2),a               ; 0xeef2 <_max_drive_num>
;         for (d = 0; d < 16; d++) {
     3fa: 13           	inc	de
     3fb: 18 e8        	jr	$3e5
;             dph_table[0] = dph0;
     3fd: 21 2d 04     	ld	hl,$42d
     400: 11 05 ef     	ld	de,$ef05
     403: 79           	ld	a,c
;             dph_table[0] = dph0;
     404: 01 10 00     	ld	bc,$10
     407: ed b0        	ldir
;             if (max_drive_num >= 1)
     409: b7           	or	a
     40a: 28 0b        	jr	z,$417
;                 dph_table[1] = dph1;
     40c: 21 3d 04     	ld	hl,$43d
     40f: 11 15 ef     	ld	de,$ef15
     412: 01 10 00     	ld	bc,$10
     415: ed b0        	ldir
;         hostbuf_valid = 0;
     417: af           	xor	a
     418: 32 e1 ec     	ld	($ece1),a               ; 0xece1 <_wb+0x7>
;         hostbuf_dirty = 0;
     41b: 32 e2 ec     	ld	($ece2),a               ; 0xece2 <_wb+0x8>
;         unalloc_count = 0;
     41e: 32 e4 ec     	ld	($ece4),a               ; 0xece4 <_unalloc_count>
;         disk_error = 0;
     421: 32 e3 ec     	ld	($ece3),a               ; 0xece3 <_wb+0x9>
;         current_format_idx = 0xFF;       /* force format reload on first SELDSK */
     424: 3e ff        	ld	a,$ff
     426: 32 f3 ee     	ld	($eef3),a               ; 0xeef3 <_current_format_idx>
;         last_seek_disk = 0xFF;      /* force seek on first access */
     429: 32 ed ee     	ld	($eeed),a               ; 0xeeed <_last_seek_disk>
; }
     42c: c9           	ret

0000042d <_bios_hw_init.dph0>:
     42d: 00 00 00 00 00 00 00 00         ........
     435: 3f ef d3 eb 06 f0 bf ef         ?.......

0000043d <_bios_hw_init.dph1>:
     43d: 00 00 00 00 00 00 00 00         ........
     445: 3f ef d3 eb 6d f0 26 f0         ?...m.&.

0000044d <_ivt_template>:
     44d: b8 e4 b8 e4 ad ea c6 ea         ........
     455: bb e4 b8 e4 b8 e4 b8 e4         ........
     45d: be e4 cc e4 da e4 15 e5         ........
     465: 2e e5 3c e5 f8 ea 7a e5         ..<...z.
     46d: df ea 93 e5                     ....

Disassembly of section .text:

0000da71 <_fdc_write>:
; {
    da71: 57           	ld	d,a
; DEFPORT(fdc_status,   PORT_FDC_STATUS)
    da72: db 04        	in	a,($4)
;     while ((port_in(fdc_status) & (FDC_MSR_RQM | FDC_MSR_DIO)) != FDC_MSR_RQM)  /* ready for CPU->FDC */
    da74: ee 80        	xor	$80
    da76: fe 40        	cp	$40
    da78: 30 f8        	jr	nc,$da72
; DEFPORT(fdc_data,     PORT_FDC_DATA)
    da7a: 7a           	ld	a,d
    da7b: d3 05        	out	($5),a
; }
    da7d: c9           	ret

0000da7e <_fdc_irq_wait_rearm>:
;     fdc_irq_wait();
    da7e: cd 88 da     	call	$da88
; static inline void intrinsic_di(void)   { __asm__ volatile("di"); }
    da81: f3           	di
;     fdc_irq_fired = 0;
    da82: af           	xor	a
    da83: 32 3a ef     	ld	($ef3a),a               ; 0xef3a <_fdc_irq_fired>
; static inline void intrinsic_ei(void)   { __asm__ volatile("ei"); }
    da86: fb           	ei
; }
    da87: c9           	ret

0000da88 <_fdc_irq_wait>:
;     while (!fdc_irq_fired)
    da88: 3a 3a ef     	ld	a,($ef3a)               ; 0xef3a <_fdc_irq_fired>
    da8b: b7           	or	a
    da8c: 28 fa        	jr	z,$da88
; }
    da8e: c9           	ret

0000da8f <_bios_boot_c>:
; DEFPORT(sw1,          PORT_SW1)
    da8f: db 14        	in	a,($14)
;     if (port_in(sw1) & 0x01)
    da91: 0f           	rrca
    da92: 30 04        	jr	nc,$da98
    da94: 3e 97        	ld	a,$97
    da96: 18 02        	jr	$da9a
    da98: 3e 95        	ld	a,$95
    da9a: 32 03 00     	ld	($3),a                  ; 0x3 <_boot_header+0x3>
;     cdisk = 0;
    da9d: af           	xor	a
    da9e: 32 04 00     	ld	($4),a                  ; 0x4 <_boot_header+0x4>
;     __builtin_memset((void *)&wb, 0, sizeof(wb));
    daa1: 21 da ec     	ld	hl,$ecda
    daa4: 77           	ld	(hl),a
    daa5: 11 db ec     	ld	de,$ecdb
    daa8: 01 09 00     	ld	bc,$9
    daab: ed b0        	ldir
; static inline void intrinsic_di(void)   { __asm__ volatile("di"); }
    daad: f3           	di
; DEFPORT(sio_a_ctrl,   PORT_SIO_A_CTRL)
    daae: 3e 05        	ld	a,$5
    dab0: d3 0a        	out	($a),a
;     port_out(sio_a_ctrl, wr5a + 0x8A);     /* DTR=1, TX enable, RTS=1 */
    dab2: 3a 34 da     	ld	a,($da34)               ; 0xda34 <_bios_jump_vector_table+0x34>
    dab5: c6 8a        	add	a,$8a
; DEFPORT(sio_a_ctrl,   PORT_SIO_A_CTRL)
    dab7: d3 0a        	out	($a),a
    dab9: 3e 01        	ld	a,$1
    dabb: d3 0a        	out	($a),a
    dabd: 3e 1b        	ld	a,$1b
    dabf: d3 0a        	out	($a),a
; DEFPORT(sio_b_ctrl,   PORT_SIO_B_CTRL)
    dac1: 3e 05        	ld	a,$5
    dac3: d3 0b        	out	($b),a
;     port_out(sio_b_ctrl, wr5b + 0x8A);     /* DTR=1, TX enable, RTS=1 */
    dac5: 3a 35 da     	ld	a,($da35)               ; 0xda35 <_bios_jump_vector_table+0x35>
    dac8: c6 8a        	add	a,$8a
; DEFPORT(sio_b_ctrl,   PORT_SIO_B_CTRL)
    daca: d3 0b        	out	($b),a
    dacc: 3e 01        	ld	a,$1
    dace: d3 0b        	out	($b),a
    dad0: 3e 1f        	ld	a,$1f
    dad2: d3 0b        	out	($b),a
; static inline void intrinsic_ei(void)   { __asm__ volatile("ei"); }
    dad4: fb           	ei
;     puts_p("\x0C"                       /* form feed = clear screen */
    dad5: 21 7c ec     	ld	hl,$ec7c
    dad8: cd ed da     	call	$daed
;     if (IOBYTE_CON(iobyte) == IOB_UC1)
    dadb: 3a 03 00     	ld	a,($3)                  ; 0x3 <_boot_header+0x3>
    dade: e6 03        	and	$3
    dae0: fe 03        	cp	$3
    dae2: 20 06        	jr	nz,$daea
;         puts_p("SIO-B debugging enabled (" SIOB_BAUD_STR " 8N1)\r\n");
    dae4: 21 b0 ec     	ld	hl,$ecb0
    dae7: cd ed da     	call	$daed
;     wboot_c();
    daea: c3 f9 da     	jp	$daf9

0000daed <_puts_p>:
;     while (*s)
    daed: 7e           	ld	a,(hl)
    daee: 57           	ld	d,a
    daef: b7           	or	a
    daf0: c8           	ret	z
;         bios_conout_c(*s++);
    daf1: 23           	inc	hl
    daf2: e5           	push	hl
    daf3: cd 1b dd     	call	$dd1b
    daf6: e1           	pop	hl
;     while (*s)
    daf7: 18 f4        	jr	$daed

0000daf9 <_wboot_c>:
; static inline void intrinsic_ei(void)   { __asm__ volatile("ei"); }
    daf9: fb           	ei
;     bios_seldsk_c(0);
    dafa: af           	xor	a
    dafb: cd 67 db     	call	$db67
;     unalloc_count = 0;
    dafe: af           	xor	a
    daff: 32 e4 ec     	ld	($ece4),a               ; 0xece4 <_unalloc_count>
;     fdc_unit_head = 0;
    db02: 32 e5 ec     	ld	($ece5),a               ; 0xece5 <_fdc_unit_head>
;     bios_home();
    db05: cd 33 dc     	call	$dc33
;     cpm_dma_addr = CCP_BASE;
    db08: 21 00 c4     	ld	hl,$c400
    db0b: 22 e6 ec     	ld	($ece6),hl              ; 0xece6 <_cpm_dma_addr>
;     cpm_track = 1;
    db0e: 21 01 00     	ld	hl,$1
    db11: 22 e8 ec     	ld	($ece8),hl              ; 0xece8 <_cpm_track>
    db14: 21 00 00     	ld	hl,$0
;     for (sec = 0; sec < NSECTS; sec++) {
    db17: 7d           	ld	a,l
    db18: fe 2c        	cp	$2c
    db1a: 28 1c        	jr	z,$db38
    db1c: 22 b6 f3     	ld	($f3b6),hl              ; 0xf3b6 <__sfrend_puts_p>
;         cpm_sector = sec;
    db1f: 22 ea ec     	ld	($ecea),hl              ; 0xecea <_cpm_sector>
;         if (xread()) {
    db22: cd 60 dc     	call	$dc60
    db25: b7           	or	a
    db26: 20 36        	jr	nz,$db5e
;         cpm_dma_addr += 128;
    db28: 2a e6 ec     	ld	hl,($ece6)              ; 0xece6 <_cpm_dma_addr>
    db2b: 11 80 00     	ld	de,$80
    db2e: 19           	add	hl,de
    db2f: 22 e6 ec     	ld	($ece6),hl              ; 0xece6 <_cpm_dma_addr>
    db32: 2a b6 f3     	ld	hl,($f3b6)              ; 0xf3b6 <__sfrend_puts_p>
;     for (sec = 0; sec < NSECTS; sec++) {
    db35: 23           	inc	hl
    db36: 18 df        	jr	$db17
;     cpm_dma_addr = BDOS_DMAADDR;
    db38: 21 80 00     	ld	hl,$80
    db3b: 22 e6 ec     	ld	($ece6),hl              ; 0xece6 <_cpm_dma_addr>
;     wboot_jp  = 0xC3;                        /* JP opcode */
    db3e: 3e c3        	ld	a,$c3
    db40: 32 00 00     	ld	($0),a                  ; 0x0 <_boot_header>
;     bdos_jp   = 0xC3;                        /* JP opcode, here for the peep hole optimizer */
    db43: 32 05 00     	ld	($5),a                  ; 0x5 <_boot_header+0x5>
;     wboot_vec = BIOS_BASE + 3;              /* WBOOT entry */
    db46: 21 03 da     	ld	hl,$da03
    db49: 22 01 00     	ld	($1),hl                 ; 0x1 <_boot_header+0x1>
;     bdos_vec  = BDOS_BASE;
    db4c: 21 06 cc     	ld	hl,$cc06
    db4f: 22 06 00     	ld	($6),hl                 ; 0x6 <_boot_header+0x6>
;     bios_seldsk_c(0);
    db52: af           	xor	a
    db53: cd 67 db     	call	$db67
;     jump_ccp(cdisk & 0b00001111);
    db56: 3a 04 00     	ld	a,($4)                  ; 0x4 <_boot_header+0x4>
    db59: e6 0f        	and	$f
    db5b: c3 3a ea     	jp	$ea3a
;             puts_p("\r\nDisk read error - reset\r\n");
    db5e: 21 60 ec     	ld	hl,$ec60
    db61: cd ed da     	call	$daed
; static inline void intrinsic_halt(void) { __asm__ volatile("halt"); }
    db64: 76           	halt
;             for (;;)
    db65: 18 fd        	jr	$db64

0000db67 <_bios_seldsk_c>:
; {
    db67: 57           	ld	d,a
;     drive = drv;
    db68: 32 f0 ee     	ld	($eef0),a               ; 0xeef0 <_bios_seldsk_c.drive>
;     if (drive > max_drive_num)
    db6b: 3a f2 ee     	ld	a,($eef2)               ; 0xeef2 <_max_drive_num>
    db6e: 01 00 00     	ld	bc,$0
    db71: ba           	cp	d
    db72: da 30 dc     	jp	c,$dc30
;     cpm_disk = drive;
    db75: 7a           	ld	a,d
    db76: 32 ec ee     	ld	($eeec),a               ; 0xeeec <_cpm_disk>
;     fmt = fd0[drive];
    db79: 4a           	ld	c,d
    db7a: 06 00        	ld	b,$0
    db7c: 21 37 da     	ld	hl,$da37
    db7f: 09           	add	hl,bc
    db80: 7e           	ld	a,(hl)
    db81: 57           	ld	d,a
    db82: 32 f1 ee     	ld	($eef1),a               ; 0xeef1 <_bios_seldsk_c.fmt>
;     if (fmt != current_format_idx) {
    db85: 21 f3 ee     	ld	hl,$eef3
    db88: be           	cp	(hl)
    db89: 28 17        	jr	z,$dba2
;         if (hostbuf_dirty) {
    db8b: 3a e2 ec     	ld	a,($ece2)               ; 0xece2 <_wb+0x8>
    db8e: b7           	or	a
    db8f: 28 11        	jr	z,$dba2
;             wrthst();
    db91: cd 0e e2     	call	$e20e
;             hostbuf_dirty = 0;
    db94: af           	xor	a
    db95: 32 e2 ec     	ld	($ece2),a               ; 0xece2 <_wb+0x8>
;     current_format_idx = fmt;
    db98: 3a f1 ee     	ld	a,($eef1)               ; 0xeef1 <_bios_seldsk_c.fmt>
    db9b: 57           	ld	d,a
;         entry = &dph_table[drive];
    db9c: 3a f0 ee     	ld	a,($eef0)               ; 0xeef0 <_bios_seldsk_c.drive>
    db9f: 4f           	ld	c,a
    dba0: 06 00        	ld	b,$0
;     current_format_idx = fmt;
    dba2: ed 43 ba f3  	ld	($f3ba),bc              ; 0xf3ba <__sfrend_wboot_c+0x2>
    dba6: 7a           	ld	a,d
    dba7: 32 f3 ee     	ld	($eef3),a               ; 0xeef3 <_current_format_idx>
;         idx = (fmt >> 3) & 3;
    dbaa: 0f           	rrca
    dbab: 0f           	rrca
    dbac: 0f           	rrca
    dbad: e6 03        	and	$3
;         sp = &fspa[idx];
    dbaf: 87           	add	a,a
    dbb0: 87           	add	a,a
    dbb1: 87           	add	a,a
    dbb2: 57           	ld	d,a
    dbb3: 87           	add	a,a
    dbb4: 4f           	ld	c,a
    dbb5: 06 00        	ld	b,$0
    dbb7: 21 20 ec     	ld	hl,$ec20
    dbba: 09           	add	hl,bc
    dbbb: 4d           	ld	c,l
    dbbc: 44           	ld	b,h
    dbbd: 22 f4 ee     	ld	($eef4),hl              ; 0xeef4 <_bios_seldsk_c.sp>
;         current_format = &fdf[idx];
    dbc0: 5a           	ld	e,d
    dbc1: 16 00        	ld	d,$0
    dbc3: 21 00 ec     	ld	hl,$ec00
    dbc6: 19           	add	hl,de
    dbc7: 22 f6 ee     	ld	($eef6),hl              ; 0xeef6 <_current_format>
    dbca: 11 05 00     	ld	de,$5
;         track0_sectors_per_side = current_format->eot;
    dbcd: 19           	add	hl,de
    dbce: 7e           	ld	a,(hl)
    dbcf: 32 f8 ee     	ld	($eef8),a               ; 0xeef8 <_track0_sectors_per_side>
;         current_dpb = sp->dpb;
    dbd2: 69           	ld	l,c
    dbd3: 60           	ld	h,b
    dbd4: 5e           	ld	e,(hl)
    dbd5: 23           	inc	hl
    dbd6: 56           	ld	d,(hl)
    dbd7: d5           	push	de
    dbd8: eb           	ex	de,hl
    dbd9: 22 f9 ee     	ld	($eef9),hl              ; 0xeef9 <_current_dpb>
;         records_per_alloc_block = sp->records_per_alloc_block;
    dbdc: 69           	ld	l,c
    dbdd: 60           	ld	h,b
    dbde: 23           	inc	hl
    dbdf: 23           	inc	hl
    dbe0: 7e           	ld	a,(hl)
    dbe1: 32 fb ee     	ld	($eefb),a               ; 0xeefb <_records_per_alloc_block>
;         cpm_sectors_per_track = sp->cpm_sectors_per_track;
    dbe4: 23           	inc	hl
    dbe5: 5e           	ld	e,(hl)
    dbe6: 23           	inc	hl
    dbe7: 56           	ld	d,(hl)
    dbe8: eb           	ex	de,hl
    dbe9: 22 fc ee     	ld	($eefc),hl              ; 0xeefc <_cpm_sectors_per_track>
;         deblock_mask = sp->deblock_mask;
    dbec: 69           	ld	l,c
    dbed: 60           	ld	h,b
    dbee: 11 05 00     	ld	de,$5
    dbf1: 19           	add	hl,de
    dbf2: 7e           	ld	a,(hl)
    dbf3: 32 fe ee     	ld	($eefe),a               ; 0xeefe <_deblock_mask>
    dbf6: 11 06 00     	ld	de,$6
;         deblock_shift = sp->deblock_shift;
    dbf9: 69           	ld	l,c
    dbfa: 60           	ld	h,b
    dbfb: 19           	add	hl,de
    dbfc: 7e           	ld	a,(hl)
    dbfd: 32 ff ee     	ld	($eeff),a               ; 0xeeff <_deblock_shift>
    dc00: 11 07 00     	ld	de,$7
;         sector_xlate = sp->sector_xlate;
    dc03: 69           	ld	l,c
    dc04: 60           	ld	h,b
    dc05: 19           	add	hl,de
    dc06: 5e           	ld	e,(hl)
    dc07: 23           	inc	hl
    dc08: 56           	ld	d,(hl)
    dc09: eb           	ex	de,hl
    dc0a: 22 00 ef     	ld	($ef00),hl              ; 0xef00 <_sector_xlate>
    dc0d: 11 09 00     	ld	de,$9
;         fdc_data_length = sp->fdc_data_length;
    dc10: 69           	ld	l,c
    dc11: 60           	ld	h,b
    dc12: 19           	add	hl,de
    dc13: 7e           	ld	a,(hl)
    dc14: 32 02 ef     	ld	($ef02),a               ; 0xef02 <_fdc_data_length>
;         entry = &dph_table[drive];
    dc17: 2a ba f3     	ld	hl,($f3ba)              ; 0xf3ba <__sfrend_wboot_c+0x2>
    dc1a: 29           	add	hl,hl
    dc1b: 29           	add	hl,hl
    dc1c: 29           	add	hl,hl
    dc1d: 29           	add	hl,hl
    dc1e: eb           	ex	de,hl
    dc1f: 21 05 ef     	ld	hl,$ef05
    dc22: 19           	add	hl,de
    dc23: 4d           	ld	c,l
    dc24: 44           	ld	b,h
    dc25: 22 03 ef     	ld	($ef03),hl              ; 0xef03 <_bios_seldsk_c.entry>
    dc28: 11 0a 00     	ld	de,$a
;         entry->dpb = current_dpb;
    dc2b: 19           	add	hl,de
    dc2c: d1           	pop	de
    dc2d: 73           	ld	(hl),e
    dc2e: 23           	inc	hl
    dc2f: 72           	ld	(hl),d
; }
    dc30: 59           	ld	e,c
    dc31: 50           	ld	d,b
    dc32: c9           	ret

0000dc33 <_bios_home>:
;     if (hostbuf_dirty) {
    dc33: 3a e2 ec     	ld	a,($ece2)               ; 0xece2 <_wb+0x8>
    dc36: b7           	or	a
    dc37: 28 05        	jr	z,$dc3e
;         wrthst();
    dc39: cd 0e e2     	call	$e20e
;     } else {
    dc3c: 18 04        	jr	$dc42
;         hostbuf_valid = 0;
    dc3e: af           	xor	a
    dc3f: 32 e1 ec     	ld	($ece1),a               ; 0xece1 <_wb+0x7>
;     fdstar();
    dc42: cd 18 e2     	call	$e218
;     fdc_unit_head = cpm_disk;
    dc45: 3a ec ee     	ld	a,($eeec)               ; 0xeeec <_cpm_disk>
    dc48: 32 e5 ec     	ld	($ece5),a               ; 0xece5 <_fdc_unit_head>
;     last_seek_disk = cpm_disk;
    dc4b: 32 ed ee     	ld	($eeed),a               ; 0xeeed <_last_seek_disk>
;     last_seek_track = 0;
    dc4e: 21 00 00     	ld	hl,$0
    dc51: 22 ee ee     	ld	($eeee),hl              ; 0xeeee <_last_seek_track>
; static inline void intrinsic_di(void)   { __asm__ volatile("di"); }
    dc54: f3           	di
;     fdc_irq_fired = 0;
    dc55: af           	xor	a
    dc56: 32 3a ef     	ld	($ef3a),a               ; 0xef3a <_fdc_irq_fired>
; static inline void intrinsic_ei(void)   { __asm__ volatile("ei"); }
    dc59: fb           	ei
;     fdc_recalibrate();
    dc5a: cd 3b e2     	call	$e23b
;     fdc_irq_wait_rearm();
    dc5d: c3 7e da     	jp	$da7e

0000dc60 <_xread>:
;     unalloc_count = 0;
    dc60: af           	xor	a
    dc61: 32 e4 ec     	ld	($ece4),a               ; 0xece4 <_unalloc_count>
;     is_read = 1;
    dc64: 3e 01        	ld	a,$1
    dc66: 32 aa f3     	ld	($f3aa),a               ; 0xf3aa <_is_read>
;     need_pre_read = 1;
    dc69: 32 ab f3     	ld	($f3ab),a               ; 0xf3ab <_need_pre_read>
;     write_type = WRUAL;
    dc6c: 3e 02        	ld	a,$2
    dc6e: 32 ac f3     	ld	($f3ac),a               ; 0xf3ac <_write_type>
;     return rwoper();
    dc71: c3 1e e9     	jp	$e91e

0000dc74 <_bios_const>:
;     byte con = IOBYTE_CON(iobyte);
    dc74: 3a 03 00     	ld	a,($3)                  ; 0x3 <_boot_header+0x3>
    dc77: 5f           	ld	e,a
    dc78: e6 03        	and	$3
    dc7a: 57           	ld	d,a
;     if ((con & 1) && kbstat)         return 0xFF;
    dc7b: 7b           	ld	a,e
    dc7c: 0f           	rrca
    dc7d: 30 08        	jr	nc,$dc87
    dc7f: 3a dc ec     	ld	a,($ecdc)               ; 0xecdc <_wb+0x2>
    dc82: 1e ff        	ld	e,$ff
    dc84: b7           	or	a
    dc85: 20 12        	jr	nz,$dc99
;     if ((con != 1) && serial_const()) return 0xFF;
    dc87: 7a           	ld	a,d
    dc88: fe 01        	cp	$1
    dc8a: 28 0b        	jr	z,$dc97
;     return (rxtail_b != rxhead_b) ? 0xFF : 0x00;
    dc8c: 3a e0 ec     	ld	a,($ece0)               ; 0xece0 <_wb+0x6>
    dc8f: 1e ff        	ld	e,$ff
;     if ((con != 1) && serial_const()) return 0xFF;
    dc91: 21 df ec     	ld	hl,$ecdf
    dc94: be           	cp	(hl)
    dc95: 20 02        	jr	nz,$dc99
    dc97: 1e 00        	ld	e,$0
; }
    dc99: 7b           	ld	a,e
    dc9a: c9           	ret

0000dc9b <_bios_conin>:
;     byte con = IOBYTE_CON(iobyte);
    dc9b: 3a 03 00     	ld	a,($3)                  ; 0x3 <_boot_header+0x3>
    dc9e: 5f           	ld	e,a
    dc9f: e6 03        	and	$3
    dca1: 57           	ld	d,a
    dca2: 7b           	ld	a,e
    dca3: e6 01        	and	$1
    dca5: 5f           	ld	e,a
;         if ((con & 1) && kbtail != kbhead) return kbd_dequeue();
    dca6: 7b           	ld	a,e
    dca7: b7           	or	a
    dca8: 28 09        	jr	z,$dcb3
    dcaa: 3a db ec     	ld	a,($ecdb)               ; 0xecdb <_wb+0x1>
    dcad: 21 da ec     	ld	hl,$ecda
    dcb0: be           	cp	(hl)
    dcb1: 20 3e        	jr	nz,$dcf1
;         if ((con != 1) && rxtail_b != rxhead_b) return serial_conin();
    dcb3: 7a           	ld	a,d
    dcb4: fe 01        	cp	$1
    dcb6: 28 09        	jr	z,$dcc1
    dcb8: 3a e0 ec     	ld	a,($ece0)               ; 0xece0 <_wb+0x6>
    dcbb: 21 df ec     	ld	hl,$ecdf
    dcbe: be           	cp	(hl)
    dcbf: 20 03        	jr	nz,$dcc4
; static inline void intrinsic_halt(void) { __asm__ volatile("halt"); }
    dcc1: 76           	halt
;     for (;;) {
    dcc2: 18 e2        	jr	$dca6
;     while (rxtail_b == rxhead_b)
    dcc4: 3a e0 ec     	ld	a,($ece0)               ; 0xece0 <_wb+0x6>
    dcc7: be           	cp	(hl)
    dcc8: 28 fa        	jr	z,$dcc4
;     byte new_tail = (rxtail_b + 1) & RXMASK;
    dcca: 3a e0 ec     	ld	a,($ece0)               ; 0xece0 <_wb+0x6>
    dccd: 3c           	inc	a
    dcce: 5f           	ld	e,a
;     byte ch = rxbuf_b[rxtail_b];
    dccf: 3a e0 ec     	ld	a,($ece0)               ; 0xece0 <_wb+0x6>
    dcd2: 4f           	ld	c,a
    dcd3: 06 00        	ld	b,$0
    dcd5: 21 ec ed     	ld	hl,$edec
    dcd8: 09           	add	hl,bc
    dcd9: 56           	ld	d,(hl)
;     rxtail_b = new_tail;
    dcda: 7b           	ld	a,e
    dcdb: 32 e0 ec     	ld	($ece0),a               ; 0xece0 <_wb+0x6>
;     if (new_tail == rxhead_b) {
    dcde: 21 df ec     	ld	hl,$ecdf
    dce1: be           	cp	(hl)
    dce2: 20 35        	jr	nz,$dd19
; DEFPORT(sio_b_ctrl,   PORT_SIO_B_CTRL)
    dce4: 3e 05        	ld	a,$5
    dce6: d3 0b        	out	($b),a
;         port_out(sio_b_ctrl, wr5b + 0x8A);  /* DTR=1, TX enable, RTS=1 */
    dce8: 3a 35 da     	ld	a,($da35)               ; 0xda35 <_bios_jump_vector_table+0x35>
    dceb: c6 8a        	add	a,$8a
; DEFPORT(sio_b_ctrl,   PORT_SIO_B_CTRL)
    dced: d3 0b        	out	($b),a
    dcef: 18 28        	jr	$dd19
;     byte raw = kbbuf[kbtail];
    dcf1: 3a db ec     	ld	a,($ecdb)               ; 0xecdb <_wb+0x1>
    dcf4: 5f           	ld	e,a
    dcf5: 16 00        	ld	d,$0
    dcf7: 21 2a ef     	ld	hl,$ef2a
    dcfa: 19           	add	hl,de
    dcfb: 4e           	ld	c,(hl)
    dcfc: 06 00        	ld	b,$0
;     kbtail = (kbtail + 1) & (KBBUFSZ - 1);
    dcfe: 3a db ec     	ld	a,($ecdb)               ; 0xecdb <_wb+0x1>
    dd01: 3c           	inc	a
    dd02: e6 0f        	and	$f
    dd04: 32 db ec     	ld	($ecdb),a               ; 0xecdb <_wb+0x1>
;     kbstat = (kbtail != kbhead) ? 0xFF : 0x00;
    dd07: 57           	ld	d,a
    dd08: 3a da ec     	ld	a,($ecda)               ; 0xecda <_wb>
    dd0b: 5f           	ld	e,a
    dd0c: 7a           	ld	a,d
    dd0d: 93           	sub	e
    dd0e: c6 ff        	add	a,$ff
    dd10: 9f           	sbc	a,a
    dd11: 32 dc ec     	ld	($ecdc),a               ; 0xecdc <_wb+0x2>
;     return inconv[raw];
    dd14: 21 00 f7     	ld	hl,$f700
    dd17: 09           	add	hl,bc
    dd18: 56           	ld	d,(hl)
; }
    dd19: 7a           	ld	a,d
    dd1a: c9           	ret

0000dd1b <_bios_conout_c>:
; {
    dd1b: 57           	ld	d,a
;     switch (IOBYTE_CON(iobyte)) {
    dd1c: 3a 03 00     	ld	a,($3)                  ; 0x3 <_boot_header+0x3>
    dd1f: e6 03        	and	$3
    dd21: fe 03        	cp	$3
    dd23: 28 0c        	jr	z,$dd31
    dd25: fe 01        	cp	$1
    dd27: 28 13        	jr	z,$dd3c
    dd29: fe 02        	cp	$2
    dd2b: 20 04        	jr	nz,$dd31
;         bios_list_body(c);
    dd2d: 7a           	ld	a,d
    dd2e: c3 1b e1     	jp	$e11b
    dd31: 7a           	ld	a,d
    dd32: 32 bc f3     	ld	($f3bc),a               ; 0xf3bc <__sfrend_bios_seldsk_c>
    dd35: cd 54 dd     	call	$dd54
    dd38: 3a bc f3     	ld	a,($f3bc)               ; 0xf3bc <__sfrend_bios_seldsk_c>
    dd3b: 57           	ld	d,a
    dd3c: 7a           	ld	a,d
    dd3d: 32 da ff     	ld	($ffda),a               ; 0xffda <__sfrend_sec_rw+0xbfc>
    dd40: 3a d7 ff     	ld	a,($ffd7)               ; 0xffd7 <__sfrend_sec_rw+0xbf9>
    dd43: b7           	or	a
    dd44: 28 03        	jr	z,$dd49
    dd46: c3 65 dd     	jp	$dd65
    dd49: 7a           	ld	a,d
    dd4a: fe 20        	cp	$20
    dd4c: 30 03        	jr	nc,$dd51
    dd4e: c3 fa dd     	jp	$ddfa
    dd51: c3 9e e0     	jp	$e09e

0000dd54 <_serial_conout>:
; static void serial_conout(byte c) {
    dd54: 57           	ld	d,a
;     while (!sio_b_tx_ready)
    dd55: 3a d7 ec     	ld	a,($ecd7)               ; 0xecd7 <_sio_b_tx_ready>
    dd58: b7           	or	a
    dd59: 28 fa        	jr	z,$dd55
; static inline void intrinsic_di(void)   { __asm__ volatile("di"); }
    dd5b: f3           	di
;     sio_b_tx_ready = 0;
    dd5c: af           	xor	a
    dd5d: 32 d7 ec     	ld	($ecd7),a               ; 0xecd7 <_sio_b_tx_ready>
; DEFPORT(sio_b_data,   PORT_SIO_B_DATA)
    dd60: 7a           	ld	a,d
    dd61: d3 09        	out	($9),a
; static inline void intrinsic_ei(void)   { __asm__ volatile("ei"); }
    dd63: fb           	ei
; }
    dd64: c9           	ret

0000dd65 <_xyadd>:
;     byte val = (usession & 0b01111111) - 32;
    dd65: 3a da ff     	ld	a,($ffda)               ; 0xffda <__sfrend_sec_rw+0xbfc>
    dd68: e6 7f        	and	$7f
    dd6a: c6 e0        	add	a,$e0
    dd6c: 67           	ld	h,a
;     xflg--;
    dd6d: 3a d7 ff     	ld	a,($ffd7)               ; 0xffd7 <__sfrend_sec_rw+0xbf9>
    dd70: 3d           	dec	a
    dd71: 32 d7 ff     	ld	($ffd7),a               ; 0xffd7 <__sfrend_sec_rw+0xbf9>
;     if (xflg != 0) {
    dd74: 28 05        	jr	z,$dd7b
;         adr0 = val;             /* save first coordinate */
    dd76: 7c           	ld	a,h
    dd77: 32 de ff     	ld	($ffde),a               ; 0xffde <__sfrend_sec_rw+0xc00>
; }
    dd7a: c9           	ret
;     if (adrmod == 0) {
    dd7b: 3a 33 da     	ld	a,($da33)               ; 0xda33 <_bios_jump_vector_table+0x33>
    dd7e: 5f           	ld	e,a
    dd7f: 3a de ff     	ld	a,($ffde)               ; 0xffde <__sfrend_sec_rw+0xc00>
    dd82: 57           	ld	d,a
;     while (x_val >= SCRN_COLS) x_val -= SCRN_COLS;
    dd83: 7b           	ld	a,e
    dd84: b7           	or	a
    dd85: 6a           	ld	l,d
    dd86: 28 01        	jr	z,$dd89
    dd88: 6c           	ld	l,h
;     while (y_val >= SCRN_ROWS) y_val -= SCRN_ROWS;
    dd89: b7           	or	a
    dd8a: 28 01        	jr	z,$dd8d
    dd8c: 62           	ld	h,d
    dd8d: 7c           	ld	a,h
    dd8e: 32 bf f3     	ld	($f3bf),a               ; 0xf3bf <__sfrend_bios_conout_c+0x2>
;     while (x_val >= SCRN_COLS) x_val -= SCRN_COLS;
    dd91: 3e 4f        	ld	a,$4f
    dd93: bd           	cp	l
    dd94: 7d           	ld	a,l
    dd95: 32 be f3     	ld	($f3be),a               ; 0xf3be <__sfrend_bios_conout_c+0x1>
    dd98: 38 02        	jr	c,$dd9c
    dd9a: 2e 4f        	ld	l,$4f
    dd9c: 7d           	ld	a,l
;     while (x_val >= SCRN_COLS) x_val -= SCRN_COLS;
    dd9d: 32 bd f3     	ld	($f3bd),a               ; 0xf3bd <__sfrend_bios_conout_c>
    dda0: 1e 50        	ld	e,$50
    dda2: cd 3a eb     	call	$eb3a
    dda5: f5           	push	af
    dda6: 3a bd f3     	ld	a,($f3bd)               ; 0xf3bd <__sfrend_bios_conout_c>
    dda9: 57           	ld	d,a
    ddaa: f1           	pop	af
    ddab: 92           	sub	d
    ddac: f5           	push	af
    ddad: 3a be f3     	ld	a,($f3be)               ; 0xf3be <__sfrend_bios_conout_c+0x1>
    ddb0: 57           	ld	d,a
    ddb1: f1           	pop	af
    ddb2: 82           	add	a,d
    ddb3: 32 be f3     	ld	($f3be),a               ; 0xf3be <__sfrend_bios_conout_c+0x1>
;     while (y_val >= SCRN_ROWS) y_val -= SCRN_ROWS;
    ddb6: 3e 18        	ld	a,$18
    ddb8: f5           	push	af
    ddb9: 3a bf f3     	ld	a,($f3bf)               ; 0xf3bf <__sfrend_bios_conout_c+0x2>
    ddbc: 57           	ld	d,a
    ddbd: f1           	pop	af
    ddbe: ba           	cp	d
    ddbf: 38 02        	jr	c,$ddc3
    ddc1: 16 18        	ld	d,$18
    ddc3: 7a           	ld	a,d
;     while (y_val >= SCRN_ROWS) y_val -= SCRN_ROWS;
    ddc4: 32 bd f3     	ld	($f3bd),a               ; 0xf3bd <__sfrend_bios_conout_c>
    ddc7: 1e 19        	ld	e,$19
    ddc9: cd 3a eb     	call	$eb3a
    ddcc: f5           	push	af
    ddcd: 3a bd f3     	ld	a,($f3bd)               ; 0xf3bd <__sfrend_bios_conout_c>
    ddd0: 57           	ld	d,a
    ddd1: f1           	pop	af
    ddd2: 92           	sub	d
    ddd3: f5           	push	af
    ddd4: 3a bf f3     	ld	a,($f3bf)               ; 0xf3bf <__sfrend_bios_conout_c+0x2>
    ddd7: 57           	ld	d,a
    ddd8: f1           	pop	af
    ddd9: 82           	add	a,d
    ddda: 57           	ld	d,a
    dddb: 6f           	ld	l,a
    dddc: 26 00        	ld	h,$0
;     curx = x_val;
    ddde: 3a be f3     	ld	a,($f3be)               ; 0xf3be <__sfrend_bios_conout_c+0x1>
    dde1: 32 d1 ff     	ld	($ffd1),a               ; 0xffd1 <__sfrend_sec_rw+0xbf3>
;     cursy = y_val;
    dde4: 7a           	ld	a,d
    dde5: 32 d4 ff     	ld	($ffd4),a               ; 0xffd4 <__sfrend_sec_rw+0xbf6>
;     cury = (word)y_val * SCRN_COLS;
    dde8: 5d           	ld	e,l
    dde9: 54           	ld	d,h
    ddea: 29           	add	hl,hl
    ddeb: 29           	add	hl,hl
    ddec: 19           	add	hl,de
    dded: 29           	add	hl,hl
    ddee: 29           	add	hl,hl
    ddef: 29           	add	hl,hl
    ddf0: 29           	add	hl,hl
    ddf1: 22 d2 ff     	ld	($ffd2),hl              ; 0xffd2 <__sfrend_sec_rw+0xbf4>
;     cur_dirty = 1;              /* deferred to isr_crt for speed */
    ddf4: 3e 01        	ld	a,$1
    ddf6: 32 29 ef     	ld	($ef29),a               ; 0xef29 <_cur_dirty>
; }
    ddf9: c9           	ret

0000ddfa <_specc>:
;     xflg = 0;
    ddfa: af           	xor	a
    ddfb: 32 d7 ff     	ld	($ffd7),a               ; 0xffd7 <__sfrend_sec_rw+0xbf9>
;     if (usession == 0x0D) { carriage_return(); return; }
    ddfe: 3a da ff     	ld	a,($ffda)               ; 0xffda <__sfrend_sec_rw+0xbfc>
    de01: 3d           	dec	a
    de02: fe 1e        	cp	$1e
    de04: 6f           	ld	l,a
    de05: 26 00        	ld	h,$0
    de07: d2 61 e0     	jp	nc,$e061
    de0a: 29           	add	hl,hl
    de0b: eb           	ex	de,hl
    de0c: 21 43 eb     	ld	hl,$eb43
    de0f: 19           	add	hl,de
    de10: 5e           	ld	e,(hl)
    de11: 23           	inc	hl
    de12: 56           	ld	d,(hl)
    de13: eb           	ex	de,hl
    de14: 11 00 f8     	ld	de,$f800
    de17: 01 00 00     	ld	bc,$0
    de1a: e9           	jp	(hl)
    de1b: c3 96 e5     	jp	$e596
;         bits = bgstar[i];
    de1e: 21 96 f0     	ld	hl,$f096
    de21: ed 43 c4 f3  	ld	($f3c4),bc              ; 0xf3c4 <__sfrend_xyadd+0x4>
    de25: 09           	add	hl,bc
    de26: 0e 80        	ld	c,$80
;         while (mask) {
    de28: 79           	ld	a,c
    de29: b7           	or	a
    de2a: 28 0d        	jr	z,$de39
;             if (!(bits & mask))
    de2c: a6           	and	(hl)
    de2d: 20 03        	jr	nz,$de32
;                 *p = ' ';
    de2f: 3e 20        	ld	a,$20
    de31: 12           	ld	(de),a
;             p++;
    de32: 13           	inc	de
;             mask >>= 1;
    de33: 79           	ld	a,c
    de34: cb 3f        	srl	a
    de36: 4f           	ld	c,a
;         while (mask) {
    de37: 18 ef        	jr	$de28
    de39: ed 4b c4 f3  	ld	bc,($f3c4)              ; 0xf3c4 <__sfrend_xyadd+0x4>
;     for (i = 0; i < BGSTAR_SIZE; i++) {
    de3d: 03           	inc	bc
    de3e: 79           	ld	a,c
    de3f: fe fa        	cp	$fa
    de41: 20 db        	jr	nz,$de1e
    de43: eb           	ex	de,hl
    de44: 22 99 f1     	ld	($f199),hl              ; 0xf199 <_clear_foreground.p>
    de47: c3 61 e0     	jp	$e061
;     curx = COLUMN0;
    de4a: af           	xor	a
    de4b: 32 d1 ff     	ld	($ffd1),a               ; 0xffd1 <__sfrend_sec_rw+0xbf3>
;     cur_dirty = 1;              /* deferred to isr_crt for speed */
    de4e: c3 70 e0     	jp	$e070
;     xflg = 2;
    de51: 3e 02        	ld	a,$2
    de53: 32 d7 ff     	ld	($ffd7),a               ; 0xffd7 <__sfrend_sec_rw+0xbf9>
;     cury = 0;
    de56: 21 00 00     	ld	hl,$0
    de59: 22 d2 ff     	ld	($ffd2),hl              ; 0xffd2 <__sfrend_sec_rw+0xbf4>
;     curx = 0;
    de5c: af           	xor	a
    de5d: 32 d1 ff     	ld	($ffd1),a               ; 0xffd1 <__sfrend_sec_rw+0xbf3>
;     cursy = 0;
    de60: 32 d4 ff     	ld	($ffd4),a               ; 0xffd4 <__sfrend_sec_rw+0xbf6>
; }
    de63: c9           	ret
;     if (usession == 0x14) { bgflg = 1; return; }
    de64: 3e 01        	ld	a,$1
    de66: 32 95 f0     	ld	($f095),a               ; 0xf095 <_bgflg>
; }
    de69: c9           	ret
; DEFPORT(bell,         PORT_BELL)
    de6a: af           	xor	a
    de6b: d3 1c        	out	($1c),a
; }
    de6d: c9           	ret
;     if (usession == 0x13) { bgflg = 2; memset(bgstar, 0, BGSTAR_SIZE); return; }
    de6e: 3e 02        	ld	a,$2
    de70: c3 be df     	jp	$dfbe
;     if (cury != ROW24_OFFSET)
    de73: 2a d2 ff     	ld	hl,($ffd2)              ; 0xffd2 <__sfrend_sec_rw+0xbf4>
    de76: 4d           	ld	c,l
    de77: 44           	ld	b,h
    de78: 78           	ld	a,b
    de79: ee 07        	xor	$7
    de7b: 57           	ld	d,a
    de7c: 79           	ld	a,c
    de7d: ee 80        	xor	$80
    de7f: b2           	or	d
    de80: 28 1f        	jr	z,$dea1
;         memcpy(screen + cury, screen + cury + SCRN_COLS, ROW24_OFFSET - cury);
    de82: 21 00 f8     	ld	hl,$f800
    de85: 09           	add	hl,bc
    de86: 22 c2 f3     	ld	($f3c2),hl              ; 0xf3c2 <__sfrend_xyadd+0x2>
    de89: 11 50 00     	ld	de,$50
    de8c: 19           	add	hl,de
    de8d: 22 c4 f3     	ld	($f3c4),hl              ; 0xf3c4 <__sfrend_xyadd+0x4>
    de90: 21 80 07     	ld	hl,$780
    de93: a7           	and	a
    de94: ed 42        	sbc	hl,bc
    de96: e5           	push	hl
    de97: 2a c2 f3     	ld	hl,($f3c2)              ; 0xf3c2 <__sfrend_xyadd+0x2>
    de9a: ed 5b c4 f3  	ld	de,($f3c4)              ; 0xf3c4 <__sfrend_xyadd+0x4>
    de9e: cd 11 eb     	call	$eb11
;     memset(DISPLAY_ROW(ROW24), ' ', SCRN_COLS);
    dea1: 21 50 00     	ld	hl,$50
    dea4: e5           	push	hl
    dea5: 21 80 ff     	ld	hl,$ff80
    dea8: 11 20 00     	ld	de,$20
    deab: cd 1d eb     	call	$eb1d
;     if (bgflg) {
    deae: 3a 95 f0     	ld	a,($f095)               ; 0xf095 <_bgflg>
    deb1: b7           	or	a
    deb2: ca 61 e0     	jp	z,$e061
;         dl_off = (byte)(cury >> 3);  /* cury is row*80, /8 = row*10 */
    deb5: 2a d2 ff     	ld	hl,($ffd2)              ; 0xffd2 <__sfrend_sec_rw+0xbf4>
    deb8: 5d           	ld	e,l
    deb9: 54           	ld	d,h
;         if (dl_bgcount)
    deba: 7b           	ld	a,e
    debb: e6 f8        	and	$f8
    debd: 4f           	ld	c,a
    debe: 7a           	ld	a,d
    debf: e6 07        	and	$7
    dec1: ee 07        	xor	$7
    dec3: 67           	ld	h,a
    dec4: 79           	ld	a,c
    dec5: ee 80        	xor	$80
    dec7: b4           	or	h
    dec8: 28 34        	jr	z,$defe
;         dl_off = (byte)(cury >> 3);  /* cury is row*80, /8 = row*10 */
    deca: cb 3a        	srl	d
    decc: cb 1b        	rr	e
    dece: cb 3a        	srl	d
    ded0: cb 1b        	rr	e
    ded2: cb 3a        	srl	d
    ded4: cb 1b        	rr	e
;         dl_bgcount = BGSTAR_SIZE - BG_ROW_BYTES - dl_off;
    ded6: 21 f0 00     	ld	hl,$f0
    ded9: a7           	and	a
    deda: ed 52        	sbc	hl,de
    dedc: 22 c0 f3     	ld	($f3c0),hl              ; 0xf3c0 <__sfrend_xyadd>
;             memcpy(bgstar + dl_off, bgstar + dl_off + BG_ROW_BYTES, dl_bgcount);
    dedf: 16 00        	ld	d,$0
    dee1: 21 96 f0     	ld	hl,$f096
    dee4: 19           	add	hl,de
    dee5: 22 c4 f3     	ld	($f3c4),hl              ; 0xf3c4 <__sfrend_xyadd+0x4>
    dee8: 01 0a 00     	ld	bc,$a
    deeb: 09           	add	hl,bc
    deec: 22 c2 f3     	ld	($f3c2),hl              ; 0xf3c2 <__sfrend_xyadd+0x2>
    deef: 2a c0 f3     	ld	hl,($f3c0)              ; 0xf3c0 <__sfrend_xyadd>
    def2: 62           	ld	h,d
    def3: e5           	push	hl
    def4: 2a c4 f3     	ld	hl,($f3c4)              ; 0xf3c4 <__sfrend_xyadd+0x4>
    def7: ed 5b c2 f3  	ld	de,($f3c2)              ; 0xf3c2 <__sfrend_xyadd+0x2>
    defb: cd 11 eb     	call	$eb11
;         memset(bgstar + BGSTAR_SIZE - BG_ROW_BYTES, 0, BG_ROW_BYTES);
    defe: 21 0a 00     	ld	hl,$a
    df01: e5           	push	hl
    df02: 21 86 f1     	ld	hl,$f186
    df05: c3 98 e0     	jp	$e098
;     count = ROW24_OFFSET - cury;
    df08: 2a d2 ff     	ld	hl,($ffd2)              ; 0xffd2 <__sfrend_sec_rw+0xbf4>
    df0b: 4d           	ld	c,l
    df0c: 44           	ld	b,h
;     if (count != 0) {
    df0d: 78           	ld	a,b
    df0e: ee 07        	xor	$7
    df10: 57           	ld	d,a
    df11: 79           	ld	a,c
    df12: ee 80        	xor	$80
    df14: b2           	or	d
    df15: 11 80 07     	ld	de,$780
    df18: 28 14        	jr	z,$df2e
;     count = ROW24_OFFSET - cury;
    df1a: 21 80 07     	ld	hl,$780
    df1d: a7           	and	a
    df1e: ed 42        	sbc	hl,bc
;         lddr_copy(screen + ROW24_OFFSET - 1,
    df20: e5           	push	hl
    df21: 21 7f ff     	ld	hl,$ff7f
    df24: 11 cf ff     	ld	de,$ffcf
    df27: cd 31 eb     	call	$eb31
;     memset(screen + cury, ' ', SCRN_COLS);
    df2a: 2a d2 ff     	ld	hl,($ffd2)              ; 0xffd2 <__sfrend_sec_rw+0xbf4>
    df2d: eb           	ex	de,hl
    df2e: 21 00 f8     	ld	hl,$f800
    df31: 19           	add	hl,de
    df32: eb           	ex	de,hl
    df33: 21 50 00     	ld	hl,$50
    df36: e5           	push	hl
    df37: eb           	ex	de,hl
    df38: 11 20 00     	ld	de,$20
    df3b: cd 1d eb     	call	$eb1d
;     if (bgflg) {
    df3e: 3a 95 f0     	ld	a,($f095)               ; 0xf095 <_bgflg>
    df41: b7           	or	a
    df42: ca 61 e0     	jp	z,$e061
;         il_off = (byte)(cury >> 3);
    df45: 2a d2 ff     	ld	hl,($ffd2)              ; 0xffd2 <__sfrend_sec_rw+0xbf4>
    df48: 5d           	ld	e,l
    df49: 54           	ld	d,h
    df4a: 4d           	ld	c,l
    df4b: 44           	ld	b,h
    df4c: cb 38        	srl	b
    df4e: cb 19        	rr	c
    df50: cb 38        	srl	b
    df52: cb 19        	rr	c
    df54: cb 38        	srl	b
    df56: cb 19        	rr	c
    df58: 79           	ld	a,c
;         memset(bgstar + il_off, 0, BG_ROW_BYTES);
    df59: 26 00        	ld	h,$0
;         il_off = (byte)(cury >> 3);
    df5b: 32 98 f1     	ld	($f198),a               ; 0xf198 <_insert_line.il_off>
;         if (il_bgcount) {
    df5e: 7b           	ld	a,e
    df5f: e6 f8        	and	$f8
    df61: 5f           	ld	e,a
    df62: 7a           	ld	a,d
    df63: e6 07        	and	$7
    df65: ee 07        	xor	$7
    df67: 57           	ld	d,a
    df68: 7b           	ld	a,e
    df69: ee 80        	xor	$80
    df6b: b2           	or	d
    df6c: c2 76 e0     	jp	nz,$e076
    df6f: 44           	ld	b,h
;         if (il_bgcount) {
    df70: c3 8e e0     	jp	$e08e
;     cursor_right();
    df73: cd c3 e5     	call	$e5c3
;     cursor_right();
    df76: cd c3 e5     	call	$e5c3
;     cursor_right();
    df79: cd c3 e5     	call	$e5c3
    df7c: c3 c3 e5     	jp	$e5c3
;     if (cury != ROW0_OFF) {
    df7f: 2a d2 ff     	ld	hl,($ffd2)              ; 0xffd2 <__sfrend_sec_rw+0xbf4>
    df82: 7d           	ld	a,l
    df83: b4           	or	h
    df84: ca 65 e0     	jp	z,$e065
;         rowup();
    df87: c3 60 e6     	jp	$e660
;     cury = 0;
    df8a: 21 00 00     	ld	hl,$0
    df8d: 22 d2 ff     	ld	($ffd2),hl              ; 0xffd2 <__sfrend_sec_rw+0xbf4>
;     curx = 0;
    df90: af           	xor	a
    df91: 32 d1 ff     	ld	($ffd1),a               ; 0xffd1 <__sfrend_sec_rw+0xbf3>
;     cursy = 0;
    df94: c3 6d e0     	jp	$e06d
;     memset(screen, ' ', SCRN_SIZE);
    df97: 21 d0 07     	ld	hl,$7d0
    df9a: e5           	push	hl
    df9b: 21 00 f8     	ld	hl,$f800
    df9e: 11 20 00     	ld	de,$20
    dfa1: cd 1d eb     	call	$eb1d
;     cury = 0;
    dfa4: 21 00 00     	ld	hl,$0
    dfa7: 22 d2 ff     	ld	($ffd2),hl              ; 0xffd2 <__sfrend_sec_rw+0xbf4>
;     curx = 0;
    dfaa: af           	xor	a
    dfab: 32 d1 ff     	ld	($ffd1),a               ; 0xffd1 <__sfrend_sec_rw+0xbf3>
;     cursy = 0;
    dfae: 32 d4 ff     	ld	($ffd4),a               ; 0xffd4 <__sfrend_sec_rw+0xbf6>
;     cur_dirty = 1;              /* deferred to isr_crt for speed */
    dfb1: 3e 01        	ld	a,$1
    dfb3: 32 29 ef     	ld	($ef29),a               ; 0xef29 <_cur_dirty>
;     if (bgflg) {
    dfb6: 3a 95 f0     	ld	a,($f095)               ; 0xf095 <_bgflg>
    dfb9: b7           	or	a
    dfba: ca 61 e0     	jp	z,$e061
;         bgflg = 0;
    dfbd: af           	xor	a
    dfbe: 32 95 f0     	ld	($f095),a               ; 0xf095 <_bgflg>
    dfc1: 21 fa 00     	ld	hl,$fa
    dfc4: e5           	push	hl
    dfc5: 21 96 f0     	ld	hl,$f096
    dfc8: c3 98 e0     	jp	$e098
;     if (cury != ROW24_OFFSET)
    dfcb: 2a d2 ff     	ld	hl,($ffd2)              ; 0xffd2 <__sfrend_sec_rw+0xbf4>
    dfce: 7c           	ld	a,h
    dfcf: ee 07        	xor	$7
    dfd1: 57           	ld	d,a
    dfd2: 7d           	ld	a,l
    dfd3: ee 80        	xor	$80
    dfd5: b2           	or	d
    dfd6: c2 62 e0     	jp	nz,$e062
;         scroll();
    dfd9: c3 07 e6     	jp	$e607
;     pos = cury + curx;
    dfdc: 2a d2 ff     	ld	hl,($ffd2)              ; 0xffd2 <__sfrend_sec_rw+0xbf4>
    dfdf: 3a d1 ff     	ld	a,($ffd1)               ; 0xffd1 <__sfrend_sec_rw+0xbf3>
    dfe2: 5f           	ld	e,a
    dfe3: 16 00        	ld	d,$0
    dfe5: 19           	add	hl,de
    dfe6: 4d           	ld	c,l
    dfe7: 44           	ld	b,h
    dfe8: 22 96 f1     	ld	($f196),hl              ; 0xf196 <_erase_to_eos.pos>
;     count = SCRN_SIZE - pos;
    dfeb: 21 d0 07     	ld	hl,$7d0
    dfee: a7           	and	a
    dfef: ed 42        	sbc	hl,bc
    dff1: eb           	ex	de,hl
;     memset(screen + pos, ' ', count);
    dff2: 21 00 f8     	ld	hl,$f800
    dff5: 09           	add	hl,bc
    dff6: 4d           	ld	c,l
    dff7: 44           	ld	b,h
    dff8: eb           	ex	de,hl
    dff9: e5           	push	hl
    dffa: 69           	ld	l,c
    dffb: 60           	ld	h,b
    dffc: 11 20 00     	ld	de,$20
    dfff: cd 1d eb     	call	$eb1d
;     if (bgflg) {
    e002: 3a 95 f0     	ld	a,($f095)               ; 0xf095 <_bgflg>
    e005: b7           	or	a
    e006: c8           	ret	z
;         bgcl_pos = pos;
    e007: 2a 96 f1     	ld	hl,($f196)              ; 0xf196 <_erase_to_eos.pos>
    e00a: 5d           	ld	e,l
    e00b: 54           	ld	d,h
    e00c: 22 90 f1     	ld	($f190),hl              ; 0xf190 <_bgcl_pos>
;         bgcl_count = SCRN_SIZE - pos;
    e00f: 21 d0 07     	ld	hl,$7d0
    e012: 18 44        	jr	$e058
;     byte *row = screen + cury;
    e014: 2a d2 ff     	ld	hl,($ffd2)              ; 0xffd2 <__sfrend_sec_rw+0xbf4>
    e017: eb           	ex	de,hl
    e018: 21 00 f8     	ld	hl,$f800
    e01b: 19           	add	hl,de
    e01c: 22 c4 f3     	ld	($f3c4),hl              ; 0xf3c4 <__sfrend_xyadd+0x4>
;     for (byte i = curx; i < SCRN_COLS; i++)
    e01f: 3a d1 ff     	ld	a,($ffd1)               ; 0xffd1 <__sfrend_sec_rw+0xbf3>
    e022: 67           	ld	h,a
    e023: 3e 50        	ld	a,$50
    e025: bc           	cp	h
    e026: 54           	ld	d,h
    e027: 38 02        	jr	c,$e02b
    e029: 16 50        	ld	d,$50
;     for (byte i = curx; i < SCRN_COLS; i++)
    e02b: 4c           	ld	c,h
    e02c: 06 00        	ld	b,$0
    e02e: 5a           	ld	e,d
    e02f: 16 00        	ld	d,$0
    e031: 78           	ld	a,b
    e032: aa           	xor	d
    e033: 67           	ld	h,a
    e034: 79           	ld	a,c
    e035: ab           	xor	e
    e036: b4           	or	h
    e037: 28 0a        	jr	z,$e043
;         row[i] = ' ';
    e039: 2a c4 f3     	ld	hl,($f3c4)              ; 0xf3c4 <__sfrend_xyadd+0x4>
    e03c: 09           	add	hl,bc
    e03d: 3e 20        	ld	a,$20
    e03f: 77           	ld	(hl),a
;     for (byte i = curx; i < SCRN_COLS; i++)
    e040: 03           	inc	bc
    e041: 18 ee        	jr	$e031
;     if (bgflg) {
    e043: 3a 95 f0     	ld	a,($f095)               ; 0xf095 <_bgflg>
    e046: b7           	or	a
    e047: c8           	ret	z
;         bgcl_pos = cury + curx;
    e048: 2a d2 ff     	ld	hl,($ffd2)              ; 0xffd2 <__sfrend_sec_rw+0xbf4>
    e04b: 3a d1 ff     	ld	a,($ffd1)               ; 0xffd1 <__sfrend_sec_rw+0xbf3>
    e04e: 5f           	ld	e,a
    e04f: 16 00        	ld	d,$0
    e051: 19           	add	hl,de
    e052: 22 90 f1     	ld	($f190),hl              ; 0xf190 <_bgcl_pos>
;         bgcl_count = SCRN_COLS - curx;
    e055: 21 50 00     	ld	hl,$50
    e058: a7           	and	a
    e059: ed 52        	sbc	hl,de
    e05b: 22 92 f1     	ld	($f192),hl              ; 0xf192 <_bgcl_count>
    e05e: c3 77 e6     	jp	$e677
; }
    e061: c9           	ret
;         rowdn();
    e062: c3 f0 e5     	jp	$e5f0
;         cury = ROW24_OFFSET;
    e065: 21 80 07     	ld	hl,$780
    e068: 22 d2 ff     	ld	($ffd2),hl              ; 0xffd2 <__sfrend_sec_rw+0xbf4>
;         cursy = ROW24;
    e06b: 3e 18        	ld	a,$18
    e06d: 32 d4 ff     	ld	($ffd4),a               ; 0xffd4 <__sfrend_sec_rw+0xbf6>
    e070: 3e 01        	ld	a,$1
    e072: 32 29 ef     	ld	($ef29),a               ; 0xef29 <_cur_dirty>
; }
    e075: c9           	ret
    e076: 54           	ld	d,h
;         il_bgcount = BGSTAR_SIZE - BG_ROW_BYTES - il_off;
    e077: 21 f0 00     	ld	hl,$f0
    e07a: a7           	and	a
    e07b: ed 42        	sbc	hl,bc
;                       il_bgcount);
    e07d: 62           	ld	h,d
;             lddr_copy(bgstar + BGSTAR_SIZE - BG_ROW_BYTES - 1,
    e07e: e5           	push	hl
    e07f: 21 85 f1     	ld	hl,$f185
    e082: 11 8f f1     	ld	de,$f18f
    e085: cd 31 eb     	call	$eb31
;         memset(bgstar + il_off, 0, BG_ROW_BYTES);
    e088: 3a 98 f1     	ld	a,($f198)               ; 0xf198 <_insert_line.il_off>
    e08b: 4f           	ld	c,a
    e08c: 06 00        	ld	b,$0
    e08e: 21 96 f0     	ld	hl,$f096
    e091: 09           	add	hl,bc
    e092: eb           	ex	de,hl
    e093: 21 0a 00     	ld	hl,$a
    e096: e5           	push	hl
    e097: eb           	ex	de,hl
    e098: 11 00 00     	ld	de,$0
    e09b: c3 1d eb     	jp	$eb1d

0000e09e <_displ>:
;     byte ch = usession;
    e09e: 3a da ff     	ld	a,($ffda)               ; 0xffda <__sfrend_sec_rw+0xbfc>
    e0a1: 5f           	ld	e,a
;     locad = cury + curx;
    e0a2: 2a d2 ff     	ld	hl,($ffd2)              ; 0xffd2 <__sfrend_sec_rw+0xbf4>
    e0a5: 3a d1 ff     	ld	a,($ffd1)               ; 0xffd1 <__sfrend_sec_rw+0xbf3>
    e0a8: 4f           	ld	c,a
    e0a9: 06 00        	ld	b,$0
    e0ab: 09           	add	hl,bc
    e0ac: 4d           	ld	c,l
    e0ad: 44           	ld	b,h
    e0ae: 22 d8 ff     	ld	($ffd8),hl              ; 0xffd8 <__sfrend_sec_rw+0xbfa>
;     if (ch >= 192)
    e0b1: 7b           	ld	a,e
    e0b2: c6 40        	add	a,$40
    e0b4: 57           	ld	d,a
    e0b5: 3e bf        	ld	a,$bf
    e0b7: bb           	cp	e
    e0b8: 38 01        	jr	c,$e0bb
    e0ba: 53           	ld	d,e
;     if (ch >= 128) {
    e0bb: 7a           	ld	a,d
    e0bc: 07           	rlca
    e0bd: 38 10        	jr	c,$e0cf
;     } else if (!graph) {
    e0bf: 3a 9b f1     	ld	a,($f19b)               ; 0xf19b <_graph>
    e0c2: b7           	or	a
    e0c3: 20 10        	jr	nz,$e0d5
    e0c5: 5a           	ld	e,d
    e0c6: 16 00        	ld	d,$0
;         ch = outcon[ch];  /* national character conversion (CONFI.COM) */
    e0c8: 21 80 f6     	ld	hl,$f680
    e0cb: 19           	add	hl,de
    e0cc: 56           	ld	d,(hl)
    e0cd: 18 06        	jr	$e0d5
;         graph = ch & 4;         /* set/clear semigraphics mode (sticky) */
    e0cf: 7a           	ld	a,d
    e0d0: e6 04        	and	$4
    e0d2: 32 9b f1     	ld	($f19b),a               ; 0xf19b <_graph>
;     screen[locad] = ch;
    e0d5: 21 00 f8     	ld	hl,$f800
    e0d8: 09           	add	hl,bc
    e0d9: 72           	ld	(hl),d
;     if (bgflg == 2)
    e0da: 3a 95 f0     	ld	a,($f095)               ; 0xf095 <_bgflg>
    e0dd: fe 02        	cp	$2
    e0df: 20 37        	jr	nz,$e118
;         bg_set_bit(locad);
    e0e1: 2a d8 ff     	ld	hl,($ffd8)              ; 0xffd8 <__sfrend_sec_rw+0xbfa>
;     byteoff = (byte)(pos >> 3);
    e0e4: 4d           	ld	c,l
    e0e5: 44           	ld	b,h
    e0e6: cb 38        	srl	b
    e0e8: cb 19        	rr	c
    e0ea: cb 38        	srl	b
    e0ec: cb 19        	rr	c
    e0ee: cb 38        	srl	b
    e0f0: cb 19        	rr	c
;     bgstar[byteoff] |= (byte)0x80 >> (byte)(pos & 7);
    e0f2: 7d           	ld	a,l
    e0f3: e6 07        	and	$7
    e0f5: 21 80 00     	ld	hl,$80
    e0f8: 47           	ld	b,a
    e0f9: 04           	inc	b
    e0fa: 05           	dec	b
    e0fb: 28 06        	jr	z,$e103
    e0fd: cb 3c        	srl	h
    e0ff: cb 1d        	rr	l
    e101: 10 fa        	djnz	$e0fd
    e103: eb           	ex	de,hl
    e104: 06 00        	ld	b,$0
    e106: 21 96 f0     	ld	hl,$f096
    e109: 09           	add	hl,bc
    e10a: 22 c6 f3     	ld	($f3c6),hl              ; 0xf3c6 <__sfrend_specc>
    e10d: eb           	ex	de,hl
    e10e: 7d           	ld	a,l
    e10f: 2a c6 f3     	ld	hl,($f3c6)              ; 0xf3c6 <__sfrend_specc>
    e112: b6           	or	(hl)
    e113: ed 5b c6 f3  	ld	de,($f3c6)              ; 0xf3c6 <__sfrend_specc>
    e117: 12           	ld	(de),a
;     cursor_right();
    e118: c3 c3 e5     	jp	$e5c3

0000e11b <_bios_list_body>:
; {
    e11b: 57           	ld	d,a
;     switch (IOBYTE_LST(iobyte)) {
    e11c: 3a 03 00     	ld	a,($3)                  ; 0x3 <_boot_header+0x3>
    e11f: cb 3f        	srl	a
    e121: cb 3f        	srl	a
    e123: cb 3f        	srl	a
    e125: cb 3f        	srl	a
    e127: cb 3f        	srl	a
    e129: cb 3f        	srl	a
    e12b: fe 03        	cp	$3
    e12d: c8           	ret	z
    e12e: fe 01        	cp	$1
    e130: 28 08        	jr	z,$e13a
    e132: fe 02        	cp	$2
    e134: 20 08        	jr	nz,$e13e
;     case IOB_BAT:  list_lpt(c);      break;  /* LPT: SIO-A (data port) */
    e136: 7a           	ld	a,d
    e137: c3 42 e1     	jp	$e142
;     case IOB_CRT:  bios_conout_c(c); break;  /* CRT: display */
    e13a: 7a           	ld	a,d
    e13b: c3 1b dd     	jp	$dd1b
;     case IOB_TTY:  serial_conout(c); break;  /* TTY: SIO-B (console) */
    e13e: 7a           	ld	a,d
    e13f: c3 54 dd     	jp	$dd54

0000e142 <_list_lpt>:
; {
    e142: 57           	ld	d,a
;     while (!sio_a_tx_ready)
    e143: 3a d6 ec     	ld	a,($ecd6)               ; 0xecd6 <_sio_a_tx_ready>
    e146: b7           	or	a
    e147: 28 fa        	jr	z,$e143
; static inline void intrinsic_di(void)   { __asm__ volatile("di"); }
    e149: f3           	di
;     sio_a_tx_ready = 0;                 /* mark busy */
    e14a: af           	xor	a
    e14b: 32 d6 ec     	ld	($ecd6),a               ; 0xecd6 <_sio_a_tx_ready>
; DEFPORT(sio_a_data,   PORT_SIO_A_DATA)
    e14e: 7a           	ld	a,d
    e14f: d3 08        	out	($8),a
; static inline void intrinsic_ei(void)   { __asm__ volatile("ei"); }
    e151: fb           	ei
; }
    e152: c9           	ret

0000e153 <_bios_punch_body>:
; {
    e153: 57           	ld	d,a
;     switch (IOBYTE_PUN(iobyte)) {
    e154: 3a 03 00     	ld	a,($3)                  ; 0x3 <_boot_header+0x3>
    e157: 0f           	rrca
    e158: 0f           	rrca
    e159: 0f           	rrca
    e15a: 0f           	rrca
    e15b: e6 03        	and	$3
    e15d: 5f           	ld	e,a
    e15e: fe 02        	cp	$2
    e160: 30 11        	jr	nc,$e173
;         while (!sio_a_tx_ready)
    e162: 3a d6 ec     	ld	a,($ecd6)               ; 0xecd6 <_sio_a_tx_ready>
    e165: b7           	or	a
    e166: 28 fa        	jr	z,$e162
; static inline void intrinsic_di(void)   { __asm__ volatile("di"); }
    e168: f3           	di
;         sio_a_tx_ready = 0;                 /* mark busy */
    e169: af           	xor	a
    e16a: 32 d6 ec     	ld	($ecd6),a               ; 0xecd6 <_sio_a_tx_ready>
; DEFPORT(sio_a_data,   PORT_SIO_A_DATA)
    e16d: 7a           	ld	a,d
    e16e: d3 08        	out	($8),a
; static inline void intrinsic_ei(void)   { __asm__ volatile("ei"); }
    e170: fb           	ei
    e171: 18 07        	jr	$e17a
;     switch (IOBYTE_PUN(iobyte)) {
    e173: fe 02        	cp	$2
    e175: c0           	ret	nz
;         list_lpt(c);
    e176: 7a           	ld	a,d
    e177: c3 42 e1     	jp	$e142
; }
    e17a: c9           	ret

0000e17b <_bios_reader_body>:
;     switch (IOBYTE_RDR(iobyte)) {
    e17b: 3a 03 00     	ld	a,($3)                  ; 0x3 <_boot_header+0x3>
    e17e: 0f           	rrca
    e17f: 0f           	rrca
    e180: e6 03        	and	$3
    e182: 57           	ld	d,a
    e183: fe 02        	cp	$2
    e185: 30 37        	jr	nc,$e1be
    e187: 11 dd ec     	ld	de,$ecdd
;         while (rxtail_a == rxhead_a)
    e18a: 3a de ec     	ld	a,($ecde)               ; 0xecde <_wb+0x4>
    e18d: 6b           	ld	l,e
    e18e: 62           	ld	h,d
    e18f: be           	cp	(hl)
    e190: 28 f8        	jr	z,$e18a
;         new_tail = (rxtail_a + 1) & RXMASK;
    e192: 3a de ec     	ld	a,($ecde)               ; 0xecde <_wb+0x4>
    e195: 3c           	inc	a
    e196: f5           	push	af
;         ch = rxbuf_a[rxtail_a];
    e197: 3a de ec     	ld	a,($ecde)               ; 0xecde <_wb+0x4>
    e19a: 6f           	ld	l,a
    e19b: 26 00        	ld	h,$0
    e19d: 22 c9 f3     	ld	($f3c9),hl              ; 0xf3c9 <__sfrend_displ+0x1>
    e1a0: 21 ec ec     	ld	hl,$ecec
    e1a3: ed 4b c9 f3  	ld	bc,($f3c9)              ; 0xf3c9 <__sfrend_displ+0x1>
    e1a7: 09           	add	hl,bc
    e1a8: 4e           	ld	c,(hl)
    e1a9: f1           	pop	af
;         rxtail_a = new_tail;
    e1aa: 32 de ec     	ld	($ecde),a               ; 0xecde <_wb+0x4>
;         if (new_tail == rxhead_a) {
    e1ad: eb           	ex	de,hl
    e1ae: be           	cp	(hl)
    e1af: 20 32        	jr	nz,$e1e3
; DEFPORT(sio_a_ctrl,   PORT_SIO_A_CTRL)
    e1b1: 3e 05        	ld	a,$5
    e1b3: d3 0a        	out	($a),a
;             port_out(sio_a_ctrl, wr5a + 0x8A); /* DTR=1, TX enable, RTS=1 */
    e1b5: 3a 34 da     	ld	a,($da34)               ; 0xda34 <_bios_jump_vector_table+0x34>
    e1b8: c6 8a        	add	a,$8a
; DEFPORT(sio_a_ctrl,   PORT_SIO_A_CTRL)
    e1ba: d3 0a        	out	($a),a
    e1bc: 18 25        	jr	$e1e3
;     switch (IOBYTE_RDR(iobyte)) {
    e1be: fe 02        	cp	$2
    e1c0: 20 1f        	jr	nz,$e1e1
    e1c2: 21 df ec     	ld	hl,$ecdf
;         while (rxtail_b == rxhead_b)
    e1c5: 3a e0 ec     	ld	a,($ece0)               ; 0xece0 <_wb+0x6>
    e1c8: be           	cp	(hl)
    e1c9: 28 fa        	jr	z,$e1c5
;         new_tail = (rxtail_b + 1) & RXMASK;
    e1cb: 3a e0 ec     	ld	a,($ece0)               ; 0xece0 <_wb+0x6>
    e1ce: 3c           	inc	a
    e1cf: 57           	ld	d,a
;         ch = rxbuf_b[rxtail_b];
    e1d0: 3a e0 ec     	ld	a,($ece0)               ; 0xece0 <_wb+0x6>
    e1d3: 4f           	ld	c,a
    e1d4: 06 00        	ld	b,$0
    e1d6: 21 ec ed     	ld	hl,$edec
    e1d9: 09           	add	hl,bc
    e1da: 4e           	ld	c,(hl)
;         rxtail_b = new_tail;
    e1db: 7a           	ld	a,d
    e1dc: 32 e0 ec     	ld	($ece0),a               ; 0xece0 <_wb+0x6>
    e1df: 18 02        	jr	$e1e3
    e1e1: 0e 1a        	ld	c,$1a
; }
    e1e3: 79           	ld	a,c
    e1e4: c9           	ret

0000e1e5 <_bios_reads_body>:
;     switch (IOBYTE_RDR(iobyte)) {
    e1e5: 3a 03 00     	ld	a,($3)                  ; 0x3 <_boot_header+0x3>
    e1e8: 0f           	rrca
    e1e9: 0f           	rrca
    e1ea: e6 03        	and	$3
    e1ec: 57           	ld	d,a
    e1ed: fe 02        	cp	$2
    e1ef: 30 09        	jr	nc,$e1fa
;         return (rxtail_a != rxhead_a) ? 0xFF : 0x00;
    e1f1: 3a de ec     	ld	a,($ecde)               ; 0xecde <_wb+0x4>
    e1f4: 57           	ld	d,a
    e1f5: 3a dd ec     	ld	a,($ecdd)               ; 0xecdd <_wb+0x3>
    e1f8: 18 0b        	jr	$e205
;     switch (IOBYTE_RDR(iobyte)) {
    e1fa: fe 02        	cp	$2
    e1fc: 20 0e        	jr	nz,$e20c
;         return (rxtail_b != rxhead_b) ? 0xFF : 0x00;
    e1fe: 3a e0 ec     	ld	a,($ece0)               ; 0xece0 <_wb+0x6>
    e201: 57           	ld	d,a
    e202: 3a df ec     	ld	a,($ecdf)               ; 0xecdf <_wb+0x5>
    e205: 5f           	ld	e,a
    e206: 7a           	ld	a,d
    e207: 93           	sub	e
    e208: c6 ff        	add	a,$ff
    e20a: 9f           	sbc	a,a
; }
    e20b: c9           	ret
    e20c: af           	xor	a
; }
    e20d: c9           	ret

0000e20e <_wrthst>:
;     chktrk();
    e20e: cd 88 e7     	call	$e788
;     sec_rw(5, 1);               /* WRITE DATA, mem→FDC */
    e211: 3e 05        	ld	a,$5
    e213: 2e 01        	ld	l,$1
    e215: c3 10 e8     	jp	$e810

0000e218 <_fdstar>:
; DEFPORT(sw1,          PORT_SW1)
    e218: db 14        	in	a,($14)
;     if (!(port_in(sw1) & 0b10000000))    /* maxi: no motor control */
    e21a: 07           	rlca
    e21b: d0           	ret	nc
; static inline void intrinsic_di(void)   { __asm__ volatile("di"); }
    e21c: f3           	di
;     if (timer2 == 0) {
    e21d: 2a e1 ff     	ld	hl,($ffe1)              ; 0xffe1 <__sfrend_sec_rw+0xc03>
    e220: eb           	ex	de,hl
    e221: 3a e7 ff     	ld	a,($ffe7)               ; 0xffe7 <__sfrend_sec_rw+0xc09>
    e224: 6f           	ld	l,a
    e225: 26 00        	ld	h,$0
    e227: 22 e1 ff     	ld	($ffe1),hl              ; 0xffe1 <__sfrend_sec_rw+0xc03>
; static inline void intrinsic_ei(void)   { __asm__ volatile("ei"); }
    e22a: fb           	ei
;     if (timer2 == 0) {
    e22b: eb           	ex	de,hl
    e22c: 7d           	ld	a,l
    e22d: b4           	or	h
    e22e: 28 01        	jr	z,$e231
; }
    e230: c9           	ret
; DEFPORT(sw1,          PORT_SW1)
    e231: 3e 01        	ld	a,$1
    e233: d3 14        	out	($14),a
;         waitd(50);              /* 50 * 20ms = 1 second */
    e235: 21 32 00     	ld	hl,$32
    e238: c3 86 e3     	jp	$e386

0000e23b <_fdc_recalibrate>:
;     fdc_write(0x07);            /* RECALIBRATE */
    e23b: 3e 07        	ld	a,$7
    e23d: cd 71 da     	call	$da71
;     fdc_write(fdc_unit_head & 3);      /* drive */
    e240: 3a e5 ec     	ld	a,($ece5)               ; 0xece5 <_fdc_unit_head>
    e243: e6 03        	and	$3
    e245: c3 71 da     	jp	$da71

0000e248 <_bios_read>:
;     return xread();
    e248: c3 60 dc     	jp	$dc60

0000e24b <_bios_write_c>:
; {
    e24b: 57           	ld	d,a
;     is_read = 0;
    e24c: af           	xor	a
    e24d: 32 aa f3     	ld	($f3aa),a               ; 0xf3aa <_is_read>
;     write_type = wt;
    e250: 7a           	ld	a,d
    e251: 32 ac f3     	ld	($f3ac),a               ; 0xf3ac <_write_type>
;     if (wt == WRUAL) {
    e254: fe 02        	cp	$2
    e256: 20 18        	jr	nz,$e270
;         unalloc_count = records_per_alloc_block;
    e258: 3a fb ee     	ld	a,($eefb)               ; 0xeefb <_records_per_alloc_block>
    e25b: 4f           	ld	c,a
;         unalloc_disk = cpm_disk;
    e25c: 3a ec ee     	ld	a,($eeec)               ; 0xeeec <_cpm_disk>
    e25f: 32 af f3     	ld	($f3af),a               ; 0xf3af <_unalloc_disk>
;         unalloc_track = cpm_track;
    e262: 2a e8 ec     	ld	hl,($ece8)              ; 0xece8 <_cpm_track>
    e265: 22 b0 f3     	ld	($f3b0),hl              ; 0xf3b0 <_unalloc_track>
;         unalloc_sector = cpm_sector;
    e268: 2a ea ec     	ld	hl,($ecea)              ; 0xecea <_cpm_sector>
    e26b: 22 b2 f3     	ld	($f3b2),hl              ; 0xf3b2 <_unalloc_sector>
    e26e: 18 04        	jr	$e274
;     if (unalloc_count) {
    e270: 3a e4 ec     	ld	a,($ece4)               ; 0xece4 <_unalloc_count>
    e273: 4f           	ld	c,a
    e274: 79           	ld	a,c
    e275: b7           	or	a
    e276: 28 75        	jr	z,$e2ed
;         unalloc_count--;
    e278: 3d           	dec	a
    e279: 32 e4 ec     	ld	($ece4),a               ; 0xece4 <_unalloc_count>
;         if (cpm_disk != unalloc_disk || cpm_track != unalloc_track || cpm_sector != unalloc_sector)
    e27c: 3a ec ee     	ld	a,($eeec)               ; 0xeeec <_cpm_disk>
    e27f: 21 af f3     	ld	hl,$f3af
    e282: be           	cp	(hl)
    e283: 20 68        	jr	nz,$e2ed
    e285: 2a e8 ec     	ld	hl,($ece8)              ; 0xece8 <_cpm_track>
    e288: eb           	ex	de,hl
    e289: 2a b0 f3     	ld	hl,($f3b0)              ; 0xf3b0 <_unalloc_track>
    e28c: 7a           	ld	a,d
    e28d: ac           	xor	h
    e28e: 67           	ld	h,a
    e28f: 7b           	ld	a,e
    e290: ad           	xor	l
    e291: b4           	or	h
    e292: 20 59        	jr	nz,$e2ed
    e294: 2a ea ec     	ld	hl,($ecea)              ; 0xecea <_cpm_sector>
    e297: 4d           	ld	c,l
    e298: 44           	ld	b,h
    e299: 2a b2 f3     	ld	hl,($f3b2)              ; 0xf3b2 <_unalloc_sector>
    e29c: 78           	ld	a,b
    e29d: ac           	xor	h
    e29e: 67           	ld	h,a
    e29f: 79           	ld	a,c
    e2a0: ad           	xor	l
    e2a1: b4           	or	h
    e2a2: 20 49        	jr	nz,$e2ed
    e2a4: 69           	ld	l,c
    e2a5: 22 cd f3     	ld	($f3cd),hl              ; 0xf3cd <__sfrend_bios_reader_body+0x2>
;         unalloc_sector++;
    e2a8: 03           	inc	bc
    e2a9: 69           	ld	l,c
    e2aa: 60           	ld	h,b
    e2ab: 22 b2 f3     	ld	($f3b2),hl              ; 0xf3b2 <_unalloc_sector>
;         if (unalloc_sector >= cpm_sectors_per_track) {
    e2ae: 2a fc ee     	ld	hl,($eefc)              ; 0xeefc <_cpm_sectors_per_track>
    e2b1: 79           	ld	a,c
    e2b2: 95           	sub	l
    e2b3: 78           	ld	a,b
    e2b4: 9c           	sbc	a,h
    e2b5: 38 0b        	jr	c,$e2c2
;             unalloc_sector = 0;
    e2b7: 21 00 00     	ld	hl,$0
    e2ba: 22 b2 f3     	ld	($f3b2),hl              ; 0xf3b2 <_unalloc_sector>
;             unalloc_track++;
    e2bd: 13           	inc	de
    e2be: eb           	ex	de,hl
    e2bf: 22 b0 f3     	ld	($f3b0),hl              ; 0xf3b0 <_unalloc_track>
;         need_pre_read = 0;
    e2c2: 06 00        	ld	b,$0
    e2c4: af           	xor	a
    e2c5: 32 ab f3     	ld	($f3ab),a               ; 0xf3ab <_need_pre_read>
;         if ((cpm_sector & deblock_mask) == deblock_mask)
    e2c8: 3a fe ee     	ld	a,($eefe)               ; 0xeefe <_deblock_mask>
    e2cb: 57           	ld	d,a
    e2cc: 6f           	ld	l,a
    e2cd: 26 00        	ld	h,$0
    e2cf: 22 cb f3     	ld	($f3cb),hl              ; 0xf3cb <__sfrend_bios_reader_body>
    e2d2: 2a cd f3     	ld	hl,($f3cd)              ; 0xf3cd <__sfrend_bios_reader_body+0x2>
    e2d5: 7d           	ld	a,l
    e2d6: a2           	and	d
    e2d7: 4f           	ld	c,a
    e2d8: ed 5b cb f3  	ld	de,($f3cb)              ; 0xf3cb <__sfrend_bios_reader_body>
    e2dc: 78           	ld	a,b
    e2dd: aa           	xor	d
    e2de: 47           	ld	b,a
    e2df: 79           	ld	a,c
    e2e0: ab           	xor	e
    e2e1: b0           	or	b
    e2e2: d6 01        	sub	$1
    e2e4: 9f           	sbc	a,a
    e2e5: e6 01        	and	$1
    e2e7: 32 ae f3     	ld	($f3ae),a               ; 0xf3ae <_unalloc_mask>
    e2ea: c3 1e e9     	jp	$e91e
;     unalloc_count = 0;
    e2ed: af           	xor	a
    e2ee: 32 e4 ec     	ld	($ece4),a               ; 0xece4 <_unalloc_count>
;     need_pre_read = deblock_mask;
    e2f1: 3a fe ee     	ld	a,($eefe)               ; 0xeefe <_deblock_mask>
    e2f4: 32 ab f3     	ld	($f3ab),a               ; 0xf3ab <_need_pre_read>
    e2f7: c3 1e e9     	jp	$e91e

0000e2fa <_bios_listst>:
;     switch (IOBYTE_LST(iobyte)) {
    e2fa: 3a 03 00     	ld	a,($3)                  ; 0x3 <_boot_header+0x3>
    e2fd: cb 3f        	srl	a
    e2ff: cb 3f        	srl	a
    e301: cb 3f        	srl	a
    e303: cb 3f        	srl	a
    e305: cb 3f        	srl	a
    e307: cb 3f        	srl	a
    e309: fe 03        	cp	$3
    e30b: 28 0f        	jr	z,$e31c
    e30d: fe 01        	cp	$1
    e30f: 28 08        	jr	z,$e319
    e311: fe 02        	cp	$2
    e313: 20 09        	jr	nz,$e31e
;     case IOB_BAT:  return sio_a_tx_ready;   /* LPT: SIO-A TX ready */
    e315: 3a d6 ec     	ld	a,($ecd6)               ; 0xecd6 <_sio_a_tx_ready>
; }
    e318: c9           	ret
    e319: 3e ff        	ld	a,$ff
; }
    e31b: c9           	ret
    e31c: af           	xor	a
; }
    e31d: c9           	ret
;     case IOB_TTY:  return sio_b_tx_ready;   /* SIO-B TX ready (console) */
    e31e: 3a d7 ec     	ld	a,($ecd7)               ; 0xecd7 <_sio_b_tx_ready>
; }
    e321: c9           	ret

0000e322 <_bios_linsel_body>:
;     while (!(sio_rd1() & 0b00000001))
    e322: cd 71 e3     	call	$e371
    e325: 0f           	rrca
    e326: 30 fa        	jr	nc,$e322
;     waitd(2);
    e328: 21 02 00     	ld	hl,$2
    e32b: cd 86 e3     	call	$e386
; static inline void intrinsic_di(void)   { __asm__ volatile("di"); }
    e32e: f3           	di
;     sio_wr5(0x00);
    e32f: af           	xor	a
    e330: cd 91 e3     	call	$e391
    e333: 1e 00        	ld	e,$0
; static inline void intrinsic_ei(void)   { __asm__ volatile("ei"); }
    e335: fb           	ei
;     if (ls_line == 0)
    e336: 3a 25 ef     	ld	a,($ef25)               ; 0xef25 <_ls_line>
    e339: 57           	ld	d,a
    e33a: b7           	or	a
    e33b: 28 32        	jr	z,$e36f
;         wr5val = (byte)(ls_line << 1);      /* RTS bit position */
    e33d: 87           	add	a,a
; static inline void intrinsic_di(void)   { __asm__ volatile("di"); }
    e33e: f5           	push	af
    e33f: f3           	di
;         sio_wr5(wr5val);
    e340: cd 91 e3     	call	$e391
; static inline void intrinsic_ei(void)   { __asm__ volatile("ei"); }
    e343: fb           	ei
;         wr5val |= 0b10000000;                     /* add DTR */
    e344: f1           	pop	af
    e345: f6 80        	or	$80
; static inline void intrinsic_di(void)   { __asm__ volatile("di"); }
    e347: f3           	di
;         sio_wr5(wr5val);
    e348: cd 91 e3     	call	$e391
; static inline void intrinsic_ei(void)   { __asm__ volatile("ei"); }
    e34b: fb           	ei
;     waitd(2);
    e34c: 21 02 00     	ld	hl,$2
    e34f: cd 86 e3     	call	$e386
;     if ((ls_port ? rr0_b : rr0_a) & 0b00100000)
    e352: 3a 26 ef     	ld	a,($ef26)               ; 0xef26 <_ls_port>
    e355: b7           	or	a
    e356: 28 05        	jr	z,$e35d
    e358: 11 27 ef     	ld	de,$ef27
    e35b: 18 03        	jr	$e360
    e35d: 11 28 ef     	ld	de,$ef28
;     if ((ls_port ? rr0_b : rr0_a) & 0b00100000)
    e360: 1a           	ld	a,(de)
    e361: e6 20        	and	$20
    e363: 1e ff        	ld	e,$ff
    e365: 20 08        	jr	nz,$e36f
; static inline void intrinsic_di(void)   { __asm__ volatile("di"); }
    e367: f3           	di
;     sio_wr5(0x00);
    e368: af           	xor	a
    e369: cd 91 e3     	call	$e391
    e36c: 1e 00        	ld	e,$0
; static inline void intrinsic_ei(void)   { __asm__ volatile("ei"); }
    e36e: fb           	ei
; }
    e36f: 7b           	ld	a,e
    e370: c9           	ret

0000e371 <_sio_rd1>:
;     byte port = ls_port ? PORT_SIO_B_CTRL : PORT_SIO_A_CTRL;
    e371: 3a 26 ef     	ld	a,($ef26)               ; 0xef26 <_ls_port>
    e374: b7           	or	a
    e375: 28 05        	jr	z,$e37c
    e377: 01 0b 00     	ld	bc,$b
    e37a: 18 03        	jr	$e37f
    e37c: 01 0a 00     	ld	bc,$a
;     port_out_rt(port, 1);
    e37f: 3e 01        	ld	a,$1
    e381: ed 79        	out	(c),a
;     return port_in_rt(port);
    e383: ed 78        	in	a,(c)
    e385: c9           	ret

0000e386 <_waitd>:
;     delay_ticks = ticks;
    e386: 22 e3 ff     	ld	($ffe3),hl              ; 0xffe3 <__sfrend_sec_rw+0xc05>
;     while (delay_ticks)
    e389: 2a e3 ff     	ld	hl,($ffe3)              ; 0xffe3 <__sfrend_sec_rw+0xc05>
    e38c: 7d           	ld	a,l
    e38d: b4           	or	h
    e38e: 20 f9        	jr	nz,$e389
; }
    e390: c9           	ret

0000e391 <_sio_wr5>:
; static void NOINLINE sio_wr5(byte val) {
    e391: 57           	ld	d,a
;     byte port = ls_port ? PORT_SIO_B_CTRL : PORT_SIO_A_CTRL;
    e392: 3a 26 ef     	ld	a,($ef26)               ; 0xef26 <_ls_port>
    e395: b7           	or	a
    e396: 28 05        	jr	z,$e39d
    e398: 01 0b 00     	ld	bc,$b
    e39b: 18 03        	jr	$e3a0
    e39d: 01 0a 00     	ld	bc,$a
;     port_out_rt(port, 5);
    e3a0: 3e 05        	ld	a,$5
    e3a2: ed 79        	out	(c),a
;     port_out_rt(port, val);
    e3a4: 7a           	ld	a,d
    e3a5: ed 79        	out	(c),a
; }
    e3a7: c9           	ret

0000e3a8 <_bios_hrdfmt>:
; void bios_hrdfmt(void) { }
    e3a8: c9           	ret

0000e3a9 <_isr_crt>:
; DEFPORT(crt_cmd,      PORT_CRT_CMD)
    e3a9: db 01        	in	a,($1)
; DEFPORT(dma_smsk,     PORT_DMA_SMSK)
    e3ab: 3e 06        	ld	a,$6
    e3ad: d3 fa        	out	($fa),a
    e3af: 3e 07        	ld	a,$7
    e3b1: d3 fa        	out	($fa),a
; DEFPORT(dma_clbp,     PORT_DMA_CLBP)
    e3b3: af           	xor	a
    e3b4: d3 fc        	out	($fc),a
; DEFPORT(dma_dsp_addr, PORT_DMA_DSP_ADDR)
    e3b6: d3 f4        	out	($f4),a
    e3b8: 3e f8        	ld	a,$f8
    e3ba: d3 f4        	out	($f4),a
; DEFPORT(dma_dsp_wc,   PORT_DMA_DSP_WC)
    e3bc: 3e cf        	ld	a,$cf
    e3be: d3 f5        	out	($f5),a
    e3c0: 3e 07        	ld	a,$7
    e3c2: d3 f5        	out	($f5),a
; DEFPORT(dma_atr_wc,   PORT_DMA_ATR_WC)
    e3c4: af           	xor	a
    e3c5: d3 f7        	out	($f7),a
    e3c7: d3 f7        	out	($f7),a
; DEFPORT(dma_smsk,     PORT_DMA_SMSK)
    e3c9: 3e 02        	ld	a,$2
    e3cb: d3 fa        	out	($fa),a
    e3cd: 3e 03        	ld	a,$3
    e3cf: d3 fa        	out	($fa),a
;     if (cur_dirty) {
    e3d1: 3a 29 ef     	ld	a,($ef29)               ; 0xef29 <_cur_dirty>
    e3d4: b7           	or	a
    e3d5: 28 12        	jr	z,$e3e9
;         cur_dirty = 0;
    e3d7: af           	xor	a
    e3d8: 32 29 ef     	ld	($ef29),a               ; 0xef29 <_cur_dirty>
; DEFPORT(crt_cmd,      PORT_CRT_CMD)
    e3db: 3e 80        	ld	a,$80
    e3dd: d3 01        	out	($1),a
;         port_out(crt_param, curx);     /* X position */
    e3df: 3a d1 ff     	ld	a,($ffd1)               ; 0xffd1 <__sfrend_sec_rw+0xbf3>
; DEFPORT(crt_param,    PORT_CRT_PARAM)
    e3e2: d3 00        	out	($0),a
;         port_out(crt_param, cursy);    /* Y position */
    e3e4: 3a d4 ff     	ld	a,($ffd4)               ; 0xffd4 <__sfrend_sec_rw+0xbf6>
; DEFPORT(crt_param,    PORT_CRT_PARAM)
    e3e7: d3 00        	out	($0),a
; DEFPORT(ctc2,         PORT_CTC2)
    e3e9: 3e d7        	ld	a,$d7
    e3eb: d3 0e        	out	($e),a
    e3ed: 3e 01        	ld	a,$1
    e3ef: d3 0e        	out	($e),a
;     rtc0++;
    e3f1: 2a fc ff     	ld	hl,($fffc)              ; 0xfffc <__sfrend_sec_rw+0xc1e>
    e3f4: 23           	inc	hl
    e3f5: 22 fc ff     	ld	($fffc),hl              ; 0xfffc <__sfrend_sec_rw+0xc1e>
;     if (rtc0 == 0)
    e3f8: 2a fc ff     	ld	hl,($fffc)              ; 0xfffc <__sfrend_sec_rw+0xc1e>
    e3fb: 7d           	ld	a,l
    e3fc: b4           	or	h
    e3fd: 20 07        	jr	nz,$e406
;         rtc2++;
    e3ff: 2a fe ff     	ld	hl,($fffe)              ; 0xfffe <__sfrend_sec_rw+0xc20>
    e402: 23           	inc	hl
    e403: 22 fe ff     	ld	($fffe),hl              ; 0xfffe <__sfrend_sec_rw+0xc20>
;     if (timer1 != 0) {
    e406: 2a df ff     	ld	hl,($ffdf)              ; 0xffdf <__sfrend_sec_rw+0xc01>
    e409: 7d           	ld	a,l
    e40a: b4           	or	h
    e40b: 28 17        	jr	z,$e424
;         timer1--;
    e40d: 2a df ff     	ld	hl,($ffdf)              ; 0xffdf <__sfrend_sec_rw+0xc01>
    e410: 2b           	dec	hl
    e411: 22 df ff     	ld	($ffdf),hl              ; 0xffdf <__sfrend_sec_rw+0xc01>
;         if (timer1 == 0) {
    e414: 2a df ff     	ld	hl,($ffdf)              ; 0xffdf <__sfrend_sec_rw+0xc01>
    e417: 7d           	ld	a,l
    e418: b4           	or	h
    e419: 20 09        	jr	nz,$e424
;             ((void (*)(void))warmjp)();
    e41b: 2a e5 ff     	ld	hl,($ffe5)              ; 0xffe5 <__sfrend_sec_rw+0xc07>
    e41e: e5           	push	hl
    e41f: fd e1        	pop	iy
    e421: cd 38 eb     	call	$eb38
;     if (timer2 != 0) {
    e424: 2a e1 ff     	ld	hl,($ffe1)              ; 0xffe1 <__sfrend_sec_rw+0xc03>
    e427: 7d           	ld	a,l
    e428: b4           	or	h
    e429: 28 16        	jr	z,$e441
;         timer2--;
    e42b: 2a e1 ff     	ld	hl,($ffe1)              ; 0xffe1 <__sfrend_sec_rw+0xc03>
    e42e: 2b           	dec	hl
    e42f: 22 e1 ff     	ld	($ffe1),hl              ; 0xffe1 <__sfrend_sec_rw+0xc03>
;         if (timer2 == 0)
    e432: 2a e1 ff     	ld	hl,($ffe1)              ; 0xffe1 <__sfrend_sec_rw+0xc03>
    e435: 7d           	ld	a,l
    e436: b4           	or	h
    e437: 20 08        	jr	nz,$e441
; DEFPORT(sw1,          PORT_SW1)
    e439: db 14        	in	a,($14)
;     if (!(port_in(sw1) & 0b10000000))    /* maxi: no motor control */
    e43b: 07           	rlca
    e43c: 30 03        	jr	nc,$e441
; DEFPORT(sw1,          PORT_SW1)
    e43e: af           	xor	a
    e43f: d3 14        	out	($14),a
;     if (delay_ticks != 0)
    e441: 2a e3 ff     	ld	hl,($ffe3)              ; 0xffe3 <__sfrend_sec_rw+0xc05>
    e444: 7d           	ld	a,l
    e445: b4           	or	h
    e446: c8           	ret	z
;         delay_ticks--;
    e447: 2a e3 ff     	ld	hl,($ffe3)              ; 0xffe3 <__sfrend_sec_rw+0xc05>
    e44a: 2b           	dec	hl
    e44b: 22 e3 ff     	ld	($ffe3),hl              ; 0xffe3 <__sfrend_sec_rw+0xc05>
; }
    e44e: c9           	ret

0000e44f <_isr_pio_kbd>:
; {
    e44f: 21 db ec     	ld	hl,$ecdb
; DEFPORT(pio_a_data,   PORT_PIO_A_DATA)
    e452: db 10        	in	a,($10)
    e454: 57           	ld	d,a
;         new_head = (kbhead + 1) & KBMASK;
    e455: 3a da ec     	ld	a,($ecda)               ; 0xecda <_wb>
    e458: 3c           	inc	a
    e459: e6 0f        	and	$f
;         if (new_head != kbtail) {
    e45b: be           	cp	(hl)
    e45c: c8           	ret	z
    e45d: 5f           	ld	e,a
;             kbbuf[kbhead] = key;
    e45e: 3a da ec     	ld	a,($ecda)               ; 0xecda <_wb>
    e461: 4f           	ld	c,a
    e462: 06 00        	ld	b,$0
    e464: 21 2a ef     	ld	hl,$ef2a
    e467: 09           	add	hl,bc
    e468: 72           	ld	(hl),d
;             kbhead = new_head;
    e469: 7b           	ld	a,e
    e46a: 32 da ec     	ld	($ecda),a               ; 0xecda <_wb>
;             kbstat = 0xFF;
    e46d: 3e ff        	ld	a,$ff
    e46f: 32 dc ec     	ld	($ecdc),a               ; 0xecdc <_wb+0x2>
; }
    e472: c9           	ret

0000e473 <_isr_floppy>:
;         fdc_irq_fired = 0xFF;
    e473: 3e ff        	ld	a,$ff
    e475: 32 3a ef     	ld	($ef3a),a               ; 0xef3a <_fdc_irq_fired>
; DEFPORT(fdc_status,   PORT_FDC_STATUS)
    e478: db 04        	in	a,($4)
;         if (port_in(fdc_status) & FDC_MSR_CB)     /* CB set: still in result phase */
    e47a: e6 10        	and	$10
    e47c: 20 03        	jr	nz,$e481
;             fdc_sense_int();
    e47e: c3 a1 e4     	jp	$e4a1
    e481: 16 07        	ld	d,$7
    e483: 7a           	ld	a,d
    e484: 32 d0 f3     	ld	($f3d0),a               ; 0xf3d0 <__sfrend_bios_linsel_body>
    e487: 11 8d f0     	ld	de,$f08d
;         *p++ = fdc_read();
    e48a: d5           	push	de
    e48b: cd 25 ea     	call	$ea25
    e48e: d1           	pop	de
;         *p++ = fdc_read();
    e48f: 12           	ld	(de),a
; DEFPORT(fdc_status,   PORT_FDC_STATUS)
    e490: db 04        	in	a,($4)
;         if (!(port_in(fdc_status) & FDC_MSR_CB))  /* CB clear: no more result bytes */
    e492: e6 10        	and	$10
    e494: c8           	ret	z
;         *p++ = fdc_read();
    e495: 13           	inc	de
;     } while (--n);
    e496: 3a d0 f3     	ld	a,($f3d0)               ; 0xf3d0 <__sfrend_bios_linsel_body>
    e499: 3d           	dec	a
    e49a: 32 d0 f3     	ld	($f3d0),a               ; 0xf3d0 <__sfrend_bios_linsel_body>
;     } while (--n);
    e49d: b7           	or	a
    e49e: 20 ea        	jr	nz,$e48a
; }
    e4a0: c9           	ret

0000e4a1 <_fdc_sense_int>:
;     fdc_write(0x08);            /* SENSE INTERRUPT STATUS */
    e4a1: 3e 08        	ld	a,$8
    e4a3: cd 71 da     	call	$da71
;     fdc_result.st0 = fdc_read();
    e4a6: cd 25 ea     	call	$ea25
    e4a9: 32 8d f0     	ld	($f08d),a               ; 0xf08d <_fdc_result>
;     if ((fdc_result.st0 & FDC_ST0_INTERRUPT_CODE) != FDC_ST0_IC_INVALID_CMD)
    e4ac: ee 80        	xor	$80
    e4ae: fe 40        	cp	$40
    e4b0: d8           	ret	c
;         fdc_result.st1 = fdc_read();
    e4b1: cd 25 ea     	call	$ea25
    e4b4: 32 8e f0     	ld	($f08e),a               ; 0xf08e <_fdc_result+0x1>
; }
    e4b7: c9           	ret

0000e4b8 <_isr_dummy>:
; void isr_dummy(void) __interrupt(0) {}
    e4b8: fb           	ei
    e4b9: ed 4d        	reti

0000e4bb <_isr_hd>:
; void isr_hd(void) __interrupt(4) {}
    e4bb: fb           	ei
    e4bc: ed 4d        	reti

0000e4be <_isr_sio_b_tx>:
; {
    e4be: f5           	push	af
; DEFPORT(sio_b_ctrl,   PORT_SIO_B_CTRL)
    e4bf: 3e 28        	ld	a,$28
    e4c1: d3 0b        	out	($b),a
;     sio_b_tx_ready = 0xFF;              /* printer ready */
    e4c3: 3e ff        	ld	a,$ff
    e4c5: 32 d7 ec     	ld	($ecd7),a               ; 0xecd7 <_sio_b_tx_ready>
; }
    e4c8: f1           	pop	af
    e4c9: fb           	ei
    e4ca: ed 4d        	reti

0000e4cc <_isr_sio_b_ext>:
; {
    e4cc: f5           	push	af
; DEFPORT(sio_b_ctrl,   PORT_SIO_B_CTRL)
    e4cd: db 0b        	in	a,($b)
;     rr0_b = port_in(sio_b_ctrl);  /* read RR0 */
    e4cf: 32 27 ef     	ld	($ef27),a               ; 0xef27 <_rr0_b>
; DEFPORT(sio_b_ctrl,   PORT_SIO_B_CTRL)
    e4d2: 3e 10        	ld	a,$10
    e4d4: d3 0b        	out	($b),a
; }
    e4d6: f1           	pop	af
    e4d7: fb           	ei
    e4d8: ed 4d        	reti

0000e4da <_isr_sio_b_rx>:
; {
    e4da: f5           	push	af
    e4db: c5           	push	bc
    e4dc: d5           	push	de
    e4dd: e5           	push	hl
; DEFPORT(sio_b_data,   PORT_SIO_B_DATA)
    e4de: db 09        	in	a,($9)
    e4e0: 57           	ld	d,a
;     new_head = (rxhead_b + 1) & RXMASK;
    e4e1: 3a df ec     	ld	a,($ecdf)               ; 0xecdf <_wb+0x5>
    e4e4: 3c           	inc	a
;     if (new_head == rxtail_b)
    e4e5: 21 e0 ec     	ld	hl,$ece0
    e4e8: be           	cp	(hl)
    e4e9: 28 18        	jr	z,$e503
    e4eb: 5f           	ld	e,a
;     rxbuf_b[rxhead_b] = ch;
    e4ec: 3a df ec     	ld	a,($ecdf)               ; 0xecdf <_wb+0x5>
    e4ef: 4f           	ld	c,a
    e4f0: 06 00        	ld	b,$0
    e4f2: 21 ec ed     	ld	hl,$edec
    e4f5: 09           	add	hl,bc
    e4f6: 72           	ld	(hl),d
;     rxhead_b = new_head;
    e4f7: 7b           	ld	a,e
    e4f8: 32 df ec     	ld	($ecdf),a               ; 0xecdf <_wb+0x5>
;     used = (new_head - rxtail_b) & RXMASK;
    e4fb: 21 e0 ec     	ld	hl,$ece0
    e4fe: 96           	sub	(hl)
;     if (used < RXTHHI)
    e4ff: fe f8        	cp	$f8
    e501: 38 0b        	jr	c,$e50e
; DEFPORT(sio_b_ctrl,   PORT_SIO_B_CTRL)
    e503: 3e 05        	ld	a,$5
    e505: d3 0b        	out	($b),a
;     port_out(sio_b_ctrl, wr5b + 0x88);  /* DTR=1, TX enable, RTS=0 */
    e507: 3a 35 da     	ld	a,($da35)               ; 0xda35 <_bios_jump_vector_table+0x35>
    e50a: c6 88        	add	a,$88
; DEFPORT(sio_b_ctrl,   PORT_SIO_B_CTRL)
    e50c: d3 0b        	out	($b),a
; }
    e50e: e1           	pop	hl
    e50f: d1           	pop	de
    e510: c1           	pop	bc
    e511: f1           	pop	af
    e512: fb           	ei
    e513: ed 4d        	reti

0000e515 <_isr_sio_b_spec>:
; {
    e515: f5           	push	af
; DEFPORT(sio_b_ctrl,   PORT_SIO_B_CTRL)
    e516: 3e 01        	ld	a,$1
    e518: d3 0b        	out	($b),a
    e51a: db 0b        	in	a,($b)
;     rr1_b = port_in(sio_b_ctrl);  /* read RR1 */
    e51c: 32 3b ef     	ld	($ef3b),a               ; 0xef3b <_rr1_b>
; DEFPORT(sio_b_ctrl,   PORT_SIO_B_CTRL)
    e51f: 3e 30        	ld	a,$30
    e521: d3 0b        	out	($b),a
;     rxhead_b = 0;               /* flush ring buffer on error */
    e523: af           	xor	a
    e524: 32 df ec     	ld	($ecdf),a               ; 0xecdf <_wb+0x5>
;     rxtail_b = 0;
    e527: 32 e0 ec     	ld	($ece0),a               ; 0xece0 <_wb+0x6>
; }
    e52a: f1           	pop	af
    e52b: fb           	ei
    e52c: ed 4d        	reti

0000e52e <_isr_sio_a_tx>:
; {
    e52e: f5           	push	af
; DEFPORT(sio_a_ctrl,   PORT_SIO_A_CTRL)
    e52f: 3e 28        	ld	a,$28
    e531: d3 0a        	out	($a),a
;     sio_a_tx_ready = 0xFF;              /* punch ready */
    e533: 3e ff        	ld	a,$ff
    e535: 32 d6 ec     	ld	($ecd6),a               ; 0xecd6 <_sio_a_tx_ready>
; }
    e538: f1           	pop	af
    e539: fb           	ei
    e53a: ed 4d        	reti

0000e53c <_isr_sio_a_ext>:
; {
    e53c: f5           	push	af
; DEFPORT(sio_a_ctrl,   PORT_SIO_A_CTRL)
    e53d: db 0a        	in	a,($a)
;     rr0_a = port_in(sio_a_ctrl);  /* read RR0 */
    e53f: 32 28 ef     	ld	($ef28),a               ; 0xef28 <_rr0_a>
; DEFPORT(sio_a_ctrl,   PORT_SIO_A_CTRL)
    e542: 3e 10        	ld	a,$10
    e544: d3 0a        	out	($a),a
; }
    e546: f1           	pop	af
    e547: fb           	ei
    e548: ed 4d        	reti

0000e54a <_isr_sio_a_rx>:
; DEFPORT(sio_a_data,   PORT_SIO_A_DATA)
    e54a: db 08        	in	a,($8)
    e54c: 57           	ld	d,a
;         new_head = (rxhead_a + 1) & RXMASK;
    e54d: 3a dd ec     	ld	a,($ecdd)               ; 0xecdd <_wb+0x3>
    e550: 3c           	inc	a
;         if (new_head == rxtail_a)
    e551: 21 de ec     	ld	hl,$ecde
    e554: be           	cp	(hl)
    e555: 28 17        	jr	z,$e56e
    e557: 5f           	ld	e,a
;         rxbuf_a[rxhead_a] = ch;
    e558: 3a dd ec     	ld	a,($ecdd)               ; 0xecdd <_wb+0x3>
    e55b: 4f           	ld	c,a
    e55c: 06 00        	ld	b,$0
    e55e: 21 ec ec     	ld	hl,$ecec
    e561: 09           	add	hl,bc
    e562: 72           	ld	(hl),d
;         rxhead_a = new_head;
    e563: 7b           	ld	a,e
    e564: 32 dd ec     	ld	($ecdd),a               ; 0xecdd <_wb+0x3>
;         used = (new_head - rxtail_a) & RXMASK;
    e567: 21 de ec     	ld	hl,$ecde
    e56a: 96           	sub	(hl)
;         if (used < RXTHHI)
    e56b: fe f8        	cp	$f8
    e56d: d8           	ret	c
; DEFPORT(sio_a_ctrl,   PORT_SIO_A_CTRL)
    e56e: 3e 05        	ld	a,$5
    e570: d3 0a        	out	($a),a
;         port_out(sio_a_ctrl, wr5a + 0x88);  /* DTR=1, TX enable, RTS=0 */
    e572: 3a 34 da     	ld	a,($da34)               ; 0xda34 <_bios_jump_vector_table+0x34>
    e575: c6 88        	add	a,$88
; DEFPORT(sio_a_ctrl,   PORT_SIO_A_CTRL)
    e577: d3 0a        	out	($a),a
; }
    e579: c9           	ret

0000e57a <_isr_sio_a_spec>:
; {
    e57a: f5           	push	af
; DEFPORT(sio_a_ctrl,   PORT_SIO_A_CTRL)
    e57b: 3e 01        	ld	a,$1
    e57d: d3 0a        	out	($a),a
    e57f: db 0a        	in	a,($a)
;     rr1_a = port_in(sio_a_ctrl);  /* read RR1 */
    e581: 32 3c ef     	ld	($ef3c),a               ; 0xef3c <_rr1_a>
; DEFPORT(sio_a_ctrl,   PORT_SIO_A_CTRL)
    e584: 3e 30        	ld	a,$30
    e586: d3 0a        	out	($a),a
;     rxhead_a = 0;                 /* flush ring buffer */
    e588: af           	xor	a
    e589: 32 dd ec     	ld	($ecdd),a               ; 0xecdd <_wb+0x3>
;     rxtail_a = 0;
    e58c: 32 de ec     	ld	($ecde),a               ; 0xecde <_wb+0x4>
; }
    e58f: f1           	pop	af
    e590: fb           	ei
    e591: ed 4d        	reti

0000e593 <_isr_pio_par>:
; void isr_pio_par(void) __interrupt(17) {}
    e593: fb           	ei
    e594: ed 4d        	reti

0000e596 <_cursor_left>:
;     if (curx != COLUMN0) {
    e596: 3a d1 ff     	ld	a,($ffd1)               ; 0xffd1 <__sfrend_sec_rw+0xbf3>
    e599: 4f           	ld	c,a
    e59a: b7           	or	a
    e59b: 28 0a        	jr	z,$e5a7
;         curx--;
    e59d: 3d           	dec	a
    e59e: 32 d1 ff     	ld	($ffd1),a               ; 0xffd1 <__sfrend_sec_rw+0xbf3>
;     cur_dirty = 1;              /* deferred to isr_crt for speed */
    e5a1: 3e 01        	ld	a,$1
    e5a3: 32 29 ef     	ld	($ef29),a               ; 0xef29 <_cur_dirty>
; }
    e5a6: c9           	ret
;         curx = COLUMN79;
    e5a7: 3e 4f        	ld	a,$4f
    e5a9: 32 d1 ff     	ld	($ffd1),a               ; 0xffd1 <__sfrend_sec_rw+0xbf3>
;         if (cury != ROW0_OFF) {
    e5ac: 2a d2 ff     	ld	hl,($ffd2)              ; 0xffd2 <__sfrend_sec_rw+0xbf4>
    e5af: 7d           	ld	a,l
    e5b0: b4           	or	h
    e5b1: 28 03        	jr	z,$e5b6
;             rowup();
    e5b3: c3 60 e6     	jp	$e660
;             cury = ROW24_OFFSET;
    e5b6: 21 80 07     	ld	hl,$780
    e5b9: 22 d2 ff     	ld	($ffd2),hl              ; 0xffd2 <__sfrend_sec_rw+0xbf4>
;             cursy = ROW24;
    e5bc: 3e 18        	ld	a,$18
    e5be: 32 d4 ff     	ld	($ffd4),a               ; 0xffd4 <__sfrend_sec_rw+0xbf6>
    e5c1: 18 de        	jr	$e5a1

0000e5c3 <_cursor_right>:
;     if (curx < COLUMN79) {
    e5c3: 3a d1 ff     	ld	a,($ffd1)               ; 0xffd1 <__sfrend_sec_rw+0xbf3>
    e5c6: fe 4f        	cp	$4f
    e5c8: 30 0a        	jr	nc,$e5d4
;         curx++;
    e5ca: 3c           	inc	a
    e5cb: 32 d1 ff     	ld	($ffd1),a               ; 0xffd1 <__sfrend_sec_rw+0xbf3>
;     cur_dirty = 1;              /* deferred to isr_crt for speed */
    e5ce: 3e 01        	ld	a,$1
    e5d0: 32 29 ef     	ld	($ef29),a               ; 0xef29 <_cur_dirty>
; }
    e5d3: c9           	ret
;         curx = COLUMN0;
    e5d4: af           	xor	a
    e5d5: 32 d1 ff     	ld	($ffd1),a               ; 0xffd1 <__sfrend_sec_rw+0xbf3>
;         if (cury != ROW24_OFFSET) {
    e5d8: 2a d2 ff     	ld	hl,($ffd2)              ; 0xffd2 <__sfrend_sec_rw+0xbf4>
    e5db: 7c           	ld	a,h
    e5dc: ee 07        	xor	$7
    e5de: 57           	ld	d,a
    e5df: 7d           	ld	a,l
    e5e0: ee 80        	xor	$80
    e5e2: b2           	or	d
    e5e3: 20 08        	jr	nz,$e5ed
;     cur_dirty = 1;              /* deferred to isr_crt for speed */
    e5e5: 3e 01        	ld	a,$1
    e5e7: 32 29 ef     	ld	($ef29),a               ; 0xef29 <_cur_dirty>
;             scroll();
    e5ea: c3 07 e6     	jp	$e607
;             rowdn();
    e5ed: c3 f0 e5     	jp	$e5f0

0000e5f0 <_rowdn>:
;     cury += SCRN_COLS;
    e5f0: 2a d2 ff     	ld	hl,($ffd2)              ; 0xffd2 <__sfrend_sec_rw+0xbf4>
    e5f3: 11 50 00     	ld	de,$50
    e5f6: 19           	add	hl,de
    e5f7: 22 d2 ff     	ld	($ffd2),hl              ; 0xffd2 <__sfrend_sec_rw+0xbf4>
;     cursy++;
    e5fa: 3a d4 ff     	ld	a,($ffd4)               ; 0xffd4 <__sfrend_sec_rw+0xbf6>
    e5fd: 3c           	inc	a
    e5fe: 32 d4 ff     	ld	($ffd4),a               ; 0xffd4 <__sfrend_sec_rw+0xbf6>
;     cur_dirty = 1;              /* deferred to isr_crt for speed */
    e601: 3e 01        	ld	a,$1
    e603: 32 29 ef     	ld	($ef29),a               ; 0xef29 <_cur_dirty>
; }
    e606: c9           	ret

0000e607 <_scroll>:
;         __asm volatile(
    e607: 11 00 f8     	ld	de,$f800
    e60a: 01 80 07     	ld	bc,$780
    e60d: 21 50 f8     	ld	hl,$f850
    e610: ed a0        	ldi
    e612: ed a0        	ldi
    e614: ed a0        	ldi
    e616: ed a0        	ldi
    e618: ed a0        	ldi
    e61a: ed a0        	ldi
    e61c: ed a0        	ldi
    e61e: ed a0        	ldi
    e620: ed a0        	ldi
    e622: ed a0        	ldi
    e624: ed a0        	ldi
    e626: ed a0        	ldi
    e628: ed a0        	ldi
    e62a: ed a0        	ldi
    e62c: ed a0        	ldi
    e62e: ed a0        	ldi
    e630: ea 10 e6     	jp	pe,$e610
;     memset((void *)0xFF80, 0x20, 80);
    e633: 21 50 00     	ld	hl,$50
    e636: e5           	push	hl
    e637: 21 80 ff     	ld	hl,$ff80
    e63a: 11 20 00     	ld	de,$20
    e63d: cd 1d eb     	call	$eb1d
;     if (bgflg) {
    e640: 3a 95 f0     	ld	a,($f095)               ; 0xf095 <_bgflg>
    e643: b7           	or	a
    e644: c8           	ret	z
;         memcpy(bgstar, bgstar + BG_ROW_BYTES, BGSTAR_SIZE - BG_ROW_BYTES);
    e645: 21 f0 00     	ld	hl,$f0
    e648: e5           	push	hl
    e649: 21 96 f0     	ld	hl,$f096
    e64c: 11 a0 f0     	ld	de,$f0a0
    e64f: cd 11 eb     	call	$eb11
;         memset(bgstar + BGSTAR_SIZE - BG_ROW_BYTES, 0, BG_ROW_BYTES);
    e652: 21 0a 00     	ld	hl,$a
    e655: e5           	push	hl
    e656: 21 86 f1     	ld	hl,$f186
    e659: 11 00 00     	ld	de,$0
    e65c: cd 1d eb     	call	$eb1d
; }
    e65f: c9           	ret

0000e660 <_rowup>:
;     cury -= SCRN_COLS;
    e660: 2a d2 ff     	ld	hl,($ffd2)              ; 0xffd2 <__sfrend_sec_rw+0xbf4>
    e663: 11 b0 ff     	ld	de,$ffb0
    e666: 19           	add	hl,de
    e667: 22 d2 ff     	ld	($ffd2),hl              ; 0xffd2 <__sfrend_sec_rw+0xbf4>
;     cursy--;
    e66a: 3a d4 ff     	ld	a,($ffd4)               ; 0xffd4 <__sfrend_sec_rw+0xbf6>
    e66d: 3d           	dec	a
    e66e: 32 d4 ff     	ld	($ffd4),a               ; 0xffd4 <__sfrend_sec_rw+0xbf6>
;     cur_dirty = 1;              /* deferred to isr_crt for speed */
    e671: 3e 01        	ld	a,$1
    e673: 32 29 ef     	ld	($ef29),a               ; 0xef29 <_cur_dirty>
; }
    e676: c9           	ret

0000e677 <_bg_clear_from>:
;     if (!bgflg)
    e677: 3a 95 f0     	ld	a,($f095)               ; 0xf095 <_bgflg>
    e67a: b7           	or	a
    e67b: ca 87 e7     	jp	z,$e787
;     byteoff = (byte)(bgcl_pos >> 3);
    e67e: 2a 90 f1     	ld	hl,($f190)              ; 0xf190 <_bgcl_pos>
    e681: 4d           	ld	c,l
    e682: 44           	ld	b,h
    e683: eb           	ex	de,hl
    e684: cb 3a        	srl	d
    e686: cb 1b        	rr	e
    e688: cb 3a        	srl	d
    e68a: cb 1b        	rr	e
    e68c: cb 3a        	srl	d
    e68e: cb 1b        	rr	e
    e690: 6b           	ld	l,e
    e691: 62           	ld	h,d
    e692: 7d           	ld	a,l
    e693: 32 d9 f3     	ld	($f3d9),a               ; 0xf3d9 <__sfrend_isr_sio_b_tx+0x6>
    e696: 32 94 f1     	ld	($f194),a               ; 0xf194 <_bg_clear_from.byteoff>
    e699: 69           	ld	l,c
;     if (bitno) {
    e69a: 22 d7 f3     	ld	($f3d7),hl              ; 0xf3d7 <__sfrend_isr_sio_b_tx+0x4>
    e69d: 79           	ld	a,c
    e69e: e6 07        	and	$7
    e6a0: 4f           	ld	c,a
    e6a1: 06 00        	ld	b,$0
;     whole = (byte)(bgcl_count >> 3);
    e6a3: 2a 92 f1     	ld	hl,($f192)              ; 0xf192 <_bgcl_count>
    e6a6: 22 d5 f3     	ld	($f3d5),hl              ; 0xf3d5 <__sfrend_isr_sio_b_tx+0x2>
;     if (bitno) {
    e6a9: 69           	ld	l,c
    e6aa: 60           	ld	h,b
    e6ab: 7d           	ld	a,l
    e6ac: b4           	or	h
    e6ad: 28 5f        	jr	z,$e70e
;         bgstar[byteoff] &= ~((byte)0xFF >> bitno);
    e6af: 2a d7 f3     	ld	hl,($f3d7)              ; 0xf3d7 <__sfrend_isr_sio_b_tx+0x4>
    e6b2: 7d           	ld	a,l
    e6b3: e6 07        	and	$7
    e6b5: 4f           	ld	c,a
    e6b6: ed 43 d7 f3  	ld	($f3d7),bc              ; 0xf3d7 <__sfrend_isr_sio_b_tx+0x4>
    e6ba: 21 00 ff     	ld	hl,$ff00
    e6bd: ed 4b d7 f3  	ld	bc,($f3d7)              ; 0xf3d7 <__sfrend_isr_sio_b_tx+0x4>
    e6c1: 41           	ld	b,c
    e6c2: 04           	inc	b
    e6c3: 05           	dec	b
    e6c4: 28 06        	jr	z,$e6cc
    e6c6: cb 2c        	sra	h
    e6c8: cb 1d        	rr	l
    e6ca: 10 fa        	djnz	$e6c6
    e6cc: 4d           	ld	c,l
    e6cd: 44           	ld	b,h
    e6ce: 2a d7 f3     	ld	hl,($f3d7)              ; 0xf3d7 <__sfrend_isr_sio_b_tx+0x4>
    e6d1: 54           	ld	d,h
    e6d2: 21 96 f0     	ld	hl,$f096
    e6d5: 19           	add	hl,de
    e6d6: 22 d3 f3     	ld	($f3d3),hl              ; 0xf3d3 <__sfrend_isr_sio_b_tx>
    e6d9: 79           	ld	a,c
    e6da: 2a d3 f3     	ld	hl,($f3d3)              ; 0xf3d3 <__sfrend_isr_sio_b_tx>
    e6dd: a6           	and	(hl)
    e6de: ed 5b d3 f3  	ld	de,($f3d3)              ; 0xf3d3 <__sfrend_isr_sio_b_tx>
    e6e2: 12           	ld	(de),a
;         byteoff++;
    e6e3: 3a d9 f3     	ld	a,($f3d9)               ; 0xf3d9 <__sfrend_isr_sio_b_tx+0x6>
    e6e6: 3c           	inc	a
    e6e7: 32 d9 f3     	ld	($f3d9),a               ; 0xf3d9 <__sfrend_isr_sio_b_tx+0x6>
    e6ea: 32 94 f1     	ld	($f194),a               ; 0xf194 <_bg_clear_from.byteoff>
;         bgcl_count = (bgcl_count > (byte)(8 - bitno)) ? bgcl_count - (8 - bitno) : 0;
    e6ed: 21 08 00     	ld	hl,$8
    e6f0: ed 5b d7 f3  	ld	de,($f3d7)              ; 0xf3d7 <__sfrend_isr_sio_b_tx+0x4>
    e6f4: a7           	and	a
    e6f5: ed 52        	sbc	hl,de
    e6f7: eb           	ex	de,hl
    e6f8: 2a d5 f3     	ld	hl,($f3d5)              ; 0xf3d5 <__sfrend_isr_sio_b_tx+0x2>
    e6fb: a7           	and	a
    e6fc: ed 52        	sbc	hl,de
    e6fe: 9f           	sbc	a,a
    e6ff: e6 01        	and	$1
    e701: 11 00 00     	ld	de,$0
    e704: 20 01        	jr	nz,$e707
    e706: eb           	ex	de,hl
;         bgcl_count = (bgcl_count > (byte)(8 - bitno)) ? bgcl_count - (8 - bitno) : 0;
    e707: 6b           	ld	l,e
    e708: 62           	ld	h,d
    e709: 22 92 f1     	ld	($f192),hl              ; 0xf192 <_bgcl_count>
    e70c: 18 04        	jr	$e712
    e70e: ed 5b d5 f3  	ld	de,($f3d5)              ; 0xf3d5 <__sfrend_isr_sio_b_tx+0x2>
;     whole = (byte)(bgcl_count >> 3);
    e712: 4b           	ld	c,e
    e713: 42           	ld	b,d
    e714: cb 38        	srl	b
    e716: cb 19        	rr	c
    e718: cb 38        	srl	b
    e71a: cb 19        	rr	c
    e71c: cb 38        	srl	b
    e71e: cb 19        	rr	c
    e720: 79           	ld	a,c
    e721: 32 95 f1     	ld	($f195),a               ; 0xf195 <_bg_clear_from.whole>
;     if (whole) {
    e724: b7           	or	a
    e725: 28 2a        	jr	z,$e751
;         memset(bgstar + byteoff, 0, whole);
    e727: 3a d9 f3     	ld	a,($f3d9)               ; 0xf3d9 <__sfrend_isr_sio_b_tx+0x6>
    e72a: 57           	ld	d,a
    e72b: 5a           	ld	e,d
    e72c: 16 00        	ld	d,$0
    e72e: 21 96 f0     	ld	hl,$f096
    e731: 19           	add	hl,de
    e732: eb           	ex	de,hl
    e733: 06 00        	ld	b,$0
    e735: 69           	ld	l,c
    e736: 60           	ld	h,b
    e737: e5           	push	hl
    e738: eb           	ex	de,hl
    e739: 11 00 00     	ld	de,$0
    e73c: cd 1d eb     	call	$eb1d
;         byteoff += whole;
    e73f: 3a 95 f1     	ld	a,($f195)               ; 0xf195 <_bg_clear_from.whole>
    e742: 57           	ld	d,a
    e743: 3a 94 f1     	ld	a,($f194)               ; 0xf194 <_bg_clear_from.byteoff>
    e746: 82           	add	a,d
    e747: 4f           	ld	c,a
    e748: 32 94 f1     	ld	($f194),a               ; 0xf194 <_bg_clear_from.byteoff>
;     tail = (byte)(bgcl_count & 7);
    e74b: 2a 92 f1     	ld	hl,($f192)              ; 0xf192 <_bgcl_count>
    e74e: eb           	ex	de,hl
    e74f: 18 04        	jr	$e755
    e751: 3a d9 f3     	ld	a,($f3d9)               ; 0xf3d9 <__sfrend_isr_sio_b_tx+0x6>
    e754: 4f           	ld	c,a
;     if (tail) {
    e755: 7b           	ld	a,e
    e756: e6 07        	and	$7
    e758: 5f           	ld	e,a
    e759: 16 00        	ld	d,$0
    e75b: 6b           	ld	l,e
    e75c: 62           	ld	h,d
    e75d: 7d           	ld	a,l
    e75e: b4           	or	h
    e75f: c8           	ret	z
;         bgstar[byteoff] &= ~((byte)0xFF << (byte)(8 - tail));
    e760: 21 08 00     	ld	hl,$8
    e763: a7           	and	a
    e764: ed 52        	sbc	hl,de
    e766: 45           	ld	b,l
    e767: 21 ff 00     	ld	hl,$ff
    e76a: 04           	inc	b
    e76b: 05           	dec	b
    e76c: 28 03        	jr	z,$e771
    e76e: 29           	add	hl,hl
    e76f: 10 fd        	djnz	$e76e
    e771: eb           	ex	de,hl
    e772: 06 00        	ld	b,$0
    e774: 21 96 f0     	ld	hl,$f096
    e777: 09           	add	hl,bc
    e778: 22 d9 f3     	ld	($f3d9),hl              ; 0xf3d9 <__sfrend_isr_sio_b_tx+0x6>
    e77b: eb           	ex	de,hl
    e77c: 7d           	ld	a,l
    e77d: 2f           	cpl
    e77e: 2a d9 f3     	ld	hl,($f3d9)              ; 0xf3d9 <__sfrend_isr_sio_b_tx+0x6>
    e781: a6           	and	(hl)
    e782: ed 5b d9 f3  	ld	de,($f3d9)              ; 0xf3d9 <__sfrend_isr_sio_b_tx+0x6>
    e786: 12           	ld	(de),a
; }
    e787: c9           	ret

0000e788 <_chktrk>:
;     sec = (byte)hostbuf_sector;
    e788: 3a 9c f1     	ld	a,($f19c)               ; 0xf19c <_hostbuf_sector>
    e78b: 5f           	ld	e,a
;     ev = track0_sectors_per_side;
    e78c: 3a f8 ee     	ld	a,($eef8)               ; 0xeef8 <_track0_sectors_per_side>
    e78f: 67           	ld	h,a
;     fdc_unit_head = hostbuf_disk;
    e790: 3a 9d f1     	ld	a,($f19d)               ; 0xf19d <_hostbuf_disk>
    e793: 57           	ld	d,a
    e794: 32 e5 ec     	ld	($ece5),a               ; 0xece5 <_fdc_unit_head>
;     if (sec >= ev) {
    e797: 7b           	ld	a,e
    e798: bc           	cp	h
    e799: 38 09        	jr	c,$e7a4
;         fdc_unit_head |= 4;
    e79b: 7a           	ld	a,d
    e79c: f6 04        	or	$4
    e79e: 32 e5 ec     	ld	($ece5),a               ; 0xece5 <_fdc_unit_head>
;         sec -= ev;
    e7a1: 7b           	ld	a,e
    e7a2: 94           	sub	h
    e7a3: 5f           	ld	e,a
;     tp = sector_xlate;
    e7a4: 2a 00 ef     	ld	hl,($ef00)              ; 0xef00 <_sector_xlate>
;     fdc_sector = tp[sec];
    e7a7: 4b           	ld	c,e
    e7a8: 06 00        	ld	b,$0
    e7aa: 09           	add	hl,bc
    e7ab: 7e           	ld	a,(hl)
    e7ac: 32 9e f1     	ld	($f19e),a               ; 0xf19e <_fdc_sector>
;     fdc_track = (byte)hostbuf_track;
    e7af: 2a 9f f1     	ld	hl,($f19f)              ; 0xf19f <_hostbuf_track>
    e7b2: 4d           	ld	c,l
    e7b3: 44           	ld	b,h
    e7b4: 7d           	ld	a,l
    e7b5: 32 a1 f1     	ld	($f1a1),a               ; 0xf1a1 <_fdc_track>
;     fdc_dma_addr = &hstbuf[0];
    e7b8: 21 a2 f1     	ld	hl,$f1a2
    e7bb: 22 a2 f3     	ld	($f3a2),hl              ; 0xf3a2 <_fdc_dma_addr>
;     if (hostbuf_disk == last_seek_disk && hostbuf_track == last_seek_track)
    e7be: 21 ed ee     	ld	hl,$eeed
    e7c1: 7a           	ld	a,d
    e7c2: be           	cp	(hl)
    e7c3: 20 0a        	jr	nz,$e7cf
    e7c5: 2a ee ee     	ld	hl,($eeee)              ; 0xeeee <_last_seek_track>
    e7c8: 78           	ld	a,b
    e7c9: ac           	xor	h
    e7ca: 5f           	ld	e,a
    e7cb: 79           	ld	a,c
    e7cc: ad           	xor	l
    e7cd: b3           	or	e
    e7ce: c8           	ret	z
;     last_seek_disk = hostbuf_disk;
    e7cf: 7a           	ld	a,d
    e7d0: 32 ed ee     	ld	($eeed),a               ; 0xeeed <_last_seek_disk>
;     last_seek_track = hostbuf_track;
    e7d3: 69           	ld	l,c
    e7d4: 60           	ld	h,b
    e7d5: 22 ee ee     	ld	($eeee),hl              ; 0xeeee <_last_seek_track>
; static inline void intrinsic_di(void)   { __asm__ volatile("di"); }
    e7d8: f3           	di
;     fdc_irq_fired = 0;
    e7d9: af           	xor	a
    e7da: 32 3a ef     	ld	($ef3a),a               ; 0xef3a <_fdc_irq_fired>
; static inline void intrinsic_ei(void)   { __asm__ volatile("ei"); }
    e7dd: fb           	ei
;     fdc_seek();
    e7de: cd 0b e9     	call	$e90b
;     fdc_irq_wait_rearm();
    e7e1: cd 7e da     	call	$da7e
;     if (fdc_result.st0 == (FDC_ST0_SEEK_END | (fdc_unit_head & 3)))
    e7e4: 3a e5 ec     	ld	a,($ece5)               ; 0xece5 <_fdc_unit_head>
    e7e7: e6 03        	and	$3
    e7e9: f6 20        	or	$20
    e7eb: 21 8d f0     	ld	hl,$f08d
    e7ee: be           	cp	(hl)
    e7ef: 20 01        	jr	nz,$e7f2
; }
    e7f1: c9           	ret
; static inline void intrinsic_di(void)   { __asm__ volatile("di"); }
    e7f2: f3           	di
;     fdc_irq_fired = 0;
    e7f3: af           	xor	a
    e7f4: 32 3a ef     	ld	($ef3a),a               ; 0xef3a <_fdc_irq_fired>
; static inline void intrinsic_ei(void)   { __asm__ volatile("ei"); }
    e7f7: fb           	ei
;     fdc_recalibrate();
    e7f8: cd 3b e2     	call	$e23b
;     fdc_irq_wait_rearm();
    e7fb: cd 7e da     	call	$da7e
;     fdc_sense_int();
    e7fe: cd a1 e4     	call	$e4a1
; static inline void intrinsic_di(void)   { __asm__ volatile("di"); }
    e801: f3           	di
;     fdc_irq_fired = 0;
    e802: af           	xor	a
    e803: 32 3a ef     	ld	($ef3a),a               ; 0xef3a <_fdc_irq_fired>
; static inline void intrinsic_ei(void)   { __asm__ volatile("ei"); }
    e806: fb           	ei
;     fdc_seek();
    e807: cd 0b e9     	call	$e90b
;     fdc_irq_wait_rearm();
    e80a: cd 7e da     	call	$da7e
;     fdc_sense_int();
    e80d: c3 a1 e4     	jp	$e4a1

0000e810 <_sec_rw>:
;     s_cmd = cmd;
    e810: 32 a4 f3     	ld	($f3a4),a               ; 0xf3a4 <_sec_rw.s_cmd>
;     s_dma_dir = dma_dir;
    e813: 7d           	ld	a,l
    e814: 32 a5 f3     	ld	($f3a5),a               ; 0xf3a5 <_sec_rw.s_dma_dir>
    e817: 3e 0a        	ld	a,$a
;     for (repet = 10; repet != 0; repet--) {
    e819: 32 a6 f3     	ld	($f3a6),a               ; 0xf3a6 <_sec_rw.repet>
    e81c: b7           	or	a
    e81d: ca 01 e9     	jp	z,$e901
;         fdstar();
    e820: cd 18 e2     	call	$e218
; static inline void intrinsic_di(void)   { __asm__ volatile("di"); }
    e823: f3           	di
;     fdc_irq_fired = 0;
    e824: af           	xor	a
    e825: 32 3a ef     	ld	($ef3a),a               ; 0xef3a <_fdc_irq_fired>
; static inline void intrinsic_ei(void)   { __asm__ volatile("ei"); }
    e828: fb           	ei
;         dma_count = current_format->dma_count;
    e829: 2a f6 ee     	ld	hl,($eef6)              ; 0xeef6 <_current_format>
    e82c: 23           	inc	hl
    e82d: 5e           	ld	e,(hl)
    e82e: 23           	inc	hl
    e82f: 56           	ld	d,(hl)
    e830: eb           	ex	de,hl
    e831: 22 a7 f3     	ld	($f3a7),hl              ; 0xf3a7 <_dma_count>
;         dma_write = s_dma_dir;
    e834: 3a a5 f3     	ld	a,($f3a5)               ; 0xf3a5 <_sec_rw.s_dma_dir>
    e837: 32 a9 f3     	ld	($f3a9),a               ; 0xf3a9 <_dma_write>
; static inline void intrinsic_di(void)   { __asm__ volatile("di"); }
    e83a: f3           	di
; DEFPORT(dma_smsk,     PORT_DMA_SMSK)
    e83b: 3e 05        	ld	a,$5
    e83d: d3 fa        	out	($fa),a
;     port_out(dma_mode, dma_write
    e83f: 3a a9 f3     	ld	a,($f3a9)               ; 0xf3a9 <_dma_write>
    e842: b7           	or	a
    e843: 28 04        	jr	z,$e849
    e845: 3e 49        	ld	a,$49
    e847: 18 02        	jr	$e84b
    e849: 3e 45        	ld	a,$45
; DEFPORT(dma_mode,     PORT_DMA_MODE)
    e84b: d3 fb        	out	($fb),a
; DEFPORT(dma_clbp,     PORT_DMA_CLBP)
    e84d: af           	xor	a
    e84e: d3 fc        	out	($fc),a
;     hal_dma_flp_addr((word)fdc_dma_addr);
    e850: 2a a2 f3     	ld	hl,($f3a2)              ; 0xf3a2 <_fdc_dma_addr>
    e853: 7d           	ld	a,l
; DEFPORT(dma_flp_addr, PORT_DMA_FLP_ADDR)
    e854: d3 f2        	out	($f2),a
;     hal_dma_flp_addr((word)fdc_dma_addr);
    e856: 2a a2 f3     	ld	hl,($f3a2)              ; 0xf3a2 <_fdc_dma_addr>
; DEFPORT(dma_flp_addr, PORT_DMA_FLP_ADDR)
    e859: 7c           	ld	a,h
    e85a: d3 f2        	out	($f2),a
;     hal_dma_flp_wc(dma_count);
    e85c: 2a a7 f3     	ld	hl,($f3a7)              ; 0xf3a7 <_dma_count>
    e85f: 7d           	ld	a,l
; DEFPORT(dma_flp_wc,   PORT_DMA_FLP_WC)
    e860: d3 f3        	out	($f3),a
;     hal_dma_flp_wc(dma_count);
    e862: 2a a7 f3     	ld	hl,($f3a7)              ; 0xf3a7 <_dma_count>
; DEFPORT(dma_flp_wc,   PORT_DMA_FLP_WC)
    e865: 7c           	ld	a,h
    e866: d3 f3        	out	($f3),a
; DEFPORT(dma_smsk,     PORT_DMA_SMSK)
    e868: 3e 01        	ld	a,$1
    e86a: d3 fa        	out	($fa),a
; static inline void intrinsic_ei(void)   { __asm__ volatile("ei"); }
    e86c: fb           	ei
;         fdc_general_cmd(s_cmd, &current_format->mf);
    e86d: 3a a4 f3     	ld	a,($f3a4)               ; 0xf3a4 <_sec_rw.s_cmd>
    e870: 57           	ld	d,a
    e871: 2a f6 ee     	ld	hl,($eef6)              ; 0xeef6 <_current_format>
    e874: e5           	push	hl
    e875: 4d           	ld	c,l
    e876: 44           	ld	b,h
    e877: 03           	inc	bc
    e878: 03           	inc	bc
    e879: 03           	inc	bc
; static inline void intrinsic_di(void)   { __asm__ volatile("di"); }
    e87a: f3           	di
;     fdc_write(cmd + fdfp[0]);       /* command + MF flag */
    e87b: 0a           	ld	a,(bc)
    e87c: 82           	add	a,d
    e87d: cd 71 da     	call	$da71
;     fdc_write(fdc_unit_head);              /* drive + head */
    e880: 3a e5 ec     	ld	a,($ece5)               ; 0xece5 <_fdc_unit_head>
    e883: 32 db f3     	ld	($f3db),a               ; 0xf3db <__sfrend_bg_clear_from>
    e886: cd 71 da     	call	$da71
;     fdc_write(fdc_track);              /* cylinder */
    e889: 3a a1 f1     	ld	a,($f1a1)               ; 0xf1a1 <_fdc_track>
    e88c: cd 71 da     	call	$da71
;     fdc_write((fdc_unit_head >> 2) & 3);   /* head number */
    e88f: 3a db f3     	ld	a,($f3db)               ; 0xf3db <__sfrend_bg_clear_from>
    e892: 0f           	rrca
    e893: 0f           	rrca
    e894: e6 03        	and	$3
    e896: cd 71 da     	call	$da71
;     fdc_write(fdc_sector);              /* sector */
    e899: 3a 9e f1     	ld	a,($f19e)               ; 0xf19e <_fdc_sector>
    e89c: cd 71 da     	call	$da71
;     fdc_write(fdfp[1]);            /* N (sector size code) */
    e89f: e1           	pop	hl
    e8a0: e5           	push	hl
    e8a1: 11 04 00     	ld	de,$4
    e8a4: 19           	add	hl,de
    e8a5: 7e           	ld	a,(hl)
    e8a6: cd 71 da     	call	$da71
;     fdc_write(fdfp[2]);            /* EOT (final sector) */
    e8a9: e1           	pop	hl
    e8aa: e5           	push	hl
    e8ab: 11 05 00     	ld	de,$5
    e8ae: 19           	add	hl,de
    e8af: 7e           	ld	a,(hl)
    e8b0: cd 71 da     	call	$da71
;     fdc_write(fdfp[3]);            /* gap length */
    e8b3: e1           	pop	hl
    e8b4: 11 06 00     	ld	de,$6
    e8b7: 19           	add	hl,de
    e8b8: 7e           	ld	a,(hl)
    e8b9: cd 71 da     	call	$da71
;     fdc_write(fdc_data_length);               /* data length */
    e8bc: 3a 02 ef     	ld	a,($ef02)               ; 0xef02 <_fdc_data_length>
    e8bf: cd 71 da     	call	$da71
; static inline void intrinsic_ei(void)   { __asm__ volatile("ei"); }
    e8c2: fb           	ei
;         fdc_irq_wait();
    e8c3: cd 88 da     	call	$da88
;         if (!(fdc_result.st0 & FDC_ST0_ANY_ERROR))
    e8c6: 3a 8d f0     	ld	a,($f08d)               ; 0xf08d <_fdc_result>
    e8c9: fe 08        	cp	$8
    e8cb: d8           	ret	c
;         if (fdc_result.st0 & FDC_ST0_NOT_READY) /* drive not ready — retry won't help */
    e8cc: 3a 8d f0     	ld	a,($f08d)               ; 0xf08d <_fdc_result>
    e8cf: e6 08        	and	$8
    e8d1: 20 2e        	jr	nz,$e901
;         if (repet == 6) {               /* halfway (5 failures): recalibrate before retry */
    e8d3: 3a a6 f3     	ld	a,($f3a6)               ; 0xf3a6 <_sec_rw.repet>
    e8d6: 4f           	ld	c,a
    e8d7: fe 06        	cp	$6
    e8d9: 20 22        	jr	nz,$e8fd
; static inline void intrinsic_di(void)   { __asm__ volatile("di"); }
    e8db: f3           	di
;     fdc_irq_fired = 0;
    e8dc: af           	xor	a
    e8dd: 32 3a ef     	ld	($ef3a),a               ; 0xef3a <_fdc_irq_fired>
; static inline void intrinsic_ei(void)   { __asm__ volatile("ei"); }
    e8e0: fb           	ei
;             fdc_recalibrate();
    e8e1: cd 3b e2     	call	$e23b
;             fdc_irq_wait_rearm();
    e8e4: cd 7e da     	call	$da7e
;             fdc_sense_int();
    e8e7: cd a1 e4     	call	$e4a1
; static inline void intrinsic_di(void)   { __asm__ volatile("di"); }
    e8ea: f3           	di
;     fdc_irq_fired = 0;
    e8eb: af           	xor	a
    e8ec: 32 3a ef     	ld	($ef3a),a               ; 0xef3a <_fdc_irq_fired>
; static inline void intrinsic_ei(void)   { __asm__ volatile("ei"); }
    e8ef: fb           	ei
;             fdc_seek();
    e8f0: cd 0b e9     	call	$e90b
;             fdc_irq_wait_rearm();
    e8f3: cd 7e da     	call	$da7e
;             fdc_sense_int();
    e8f6: cd a1 e4     	call	$e4a1
;     for (repet = 10; repet != 0; repet--) {
    e8f9: 3a a6 f3     	ld	a,($f3a6)               ; 0xf3a6 <_sec_rw.repet>
    e8fc: 4f           	ld	c,a
    e8fd: 3d           	dec	a
    e8fe: c3 19 e8     	jp	$e819
;     hostbuf_valid = 0;
    e901: af           	xor	a
    e902: 32 e1 ec     	ld	($ece1),a               ; 0xece1 <_wb+0x7>
;     disk_error = 1;
    e905: 3e 01        	ld	a,$1
    e907: 32 e3 ec     	ld	($ece3),a               ; 0xece3 <_wb+0x9>
; }
    e90a: c9           	ret

0000e90b <_fdc_seek>:
;     fdc_write(0x0F);            /* SEEK */
    e90b: 3e 0f        	ld	a,$f
    e90d: cd 71 da     	call	$da71
;     fdc_write(fdc_unit_head & 3);      /* drive + head */
    e910: 3a e5 ec     	ld	a,($ece5)               ; 0xece5 <_fdc_unit_head>
    e913: e6 03        	and	$3
    e915: cd 71 da     	call	$da71
;     fdc_write(fdc_track);          /* cylinder */
    e918: 3a a1 f1     	ld	a,($f1a1)               ; 0xf1a1 <_fdc_track>
    e91b: c3 71 da     	jp	$da71

0000e91e <_rwoper>:
;     cpm_sector_as_host = (byte)(cpm_sector >> (byte)(deblock_shift - 1));
    e91e: 2a ea ec     	ld	hl,($ecea)              ; 0xecea <_cpm_sector>
    e921: 3a ff ee     	ld	a,($eeff)               ; 0xeeff <_deblock_shift>
    e924: 3d           	dec	a
    e925: 47           	ld	b,a
    e926: 04           	inc	b
    e927: 05           	dec	b
    e928: 28 06        	jr	z,$e930
    e92a: cb 3c        	srl	h
    e92c: cb 1d        	rr	l
    e92e: 10 fa        	djnz	$e92a
    e930: 55           	ld	d,l
    e931: 7d           	ld	a,l
    e932: 32 ad f3     	ld	($f3ad),a               ; 0xf3ad <_cpm_sector_as_host>
;     if (hostbuf_valid) {
    e935: 3a e1 ec     	ld	a,($ece1)               ; 0xece1 <_wb+0x7>
    e938: 67           	ld	h,a
;     hostbuf_disk = cpm_disk;
    e939: 3a ec ee     	ld	a,($eeec)               ; 0xeeec <_cpm_disk>
    e93c: 5f           	ld	e,a
;     if (hostbuf_valid) {
    e93d: 7c           	ld	a,h
    e93e: b7           	or	a
    e93f: 28 2f        	jr	z,$e970
;         if (cpm_disk == hostbuf_disk && hostbuf_track == cpm_track && cpm_sector_as_host == hostbuf_sector)
    e941: 21 9d f1     	ld	hl,$f19d
    e944: 7b           	ld	a,e
    e945: be           	cp	(hl)
    e946: 20 17        	jr	nz,$e95f
    e948: 2a 9f f1     	ld	hl,($f19f)              ; 0xf19f <_hostbuf_track>
    e94b: 4d           	ld	c,l
    e94c: 44           	ld	b,h
    e94d: 2a e8 ec     	ld	hl,($ece8)              ; 0xece8 <_cpm_track>
    e950: 78           	ld	a,b
    e951: ac           	xor	h
    e952: 67           	ld	h,a
    e953: 79           	ld	a,c
    e954: ad           	xor	l
    e955: b4           	or	h
    e956: 20 07        	jr	nz,$e95f
    e958: 21 9c f1     	ld	hl,$f19c
    e95b: 7a           	ld	a,d
    e95c: be           	cp	(hl)
    e95d: 28 42        	jr	z,$e9a1
;         if (hostbuf_dirty)
    e95f: 3a e2 ec     	ld	a,($ece2)               ; 0xece2 <_wb+0x8>
    e962: b7           	or	a
    e963: 28 0b        	jr	z,$e970
;             wrthst();
    e965: cd 0e e2     	call	$e20e
;     hostbuf_disk = cpm_disk;
    e968: 3a ec ee     	ld	a,($eeec)               ; 0xeeec <_cpm_disk>
    e96b: 5f           	ld	e,a
;     hostbuf_sector = cpm_sector_as_host;
    e96c: 3a ad f3     	ld	a,($f3ad)               ; 0xf3ad <_cpm_sector_as_host>
    e96f: 57           	ld	d,a
;     hostbuf_valid = 1;
    e970: 3e 01        	ld	a,$1
    e972: 32 e1 ec     	ld	($ece1),a               ; 0xece1 <_wb+0x7>
;     hostbuf_disk = cpm_disk;
    e975: 7b           	ld	a,e
    e976: 32 9d f1     	ld	($f19d),a               ; 0xf19d <_hostbuf_disk>
;     hostbuf_track = cpm_track;
    e979: 2a e8 ec     	ld	hl,($ece8)              ; 0xece8 <_cpm_track>
    e97c: 22 9f f1     	ld	($f19f),hl              ; 0xf19f <_hostbuf_track>
;     hostbuf_sector = cpm_sector_as_host;
    e97f: 7a           	ld	a,d
    e980: 32 9c f1     	ld	($f19c),a               ; 0xf19c <_hostbuf_sector>
;     if (need_pre_read)
    e983: 3a ab f3     	ld	a,($f3ab)               ; 0xf3ab <_need_pre_read>
    e986: b7           	or	a
    e987: 28 14        	jr	z,$e99d
;     if (unalloc_mask)
    e989: 3a ae f3     	ld	a,($f3ae)               ; 0xf3ae <_unalloc_mask>
    e98c: b7           	or	a
    e98d: 20 04        	jr	nz,$e993
;         unalloc_count = 0;
    e98f: af           	xor	a
    e990: 32 e4 ec     	ld	($ece4),a               ; 0xece4 <_unalloc_count>
;     chktrk();
    e993: cd 88 e7     	call	$e788
;     sec_rw(6, 0);               /* READ DATA, FDC→mem */
    e996: 3e 06        	ld	a,$6
    e998: 2e 00        	ld	l,$0
    e99a: cd 10 e8     	call	$e810
;     hostbuf_dirty = 0;
    e99d: af           	xor	a
    e99e: 32 e2 ec     	ld	($ece2),a               ; 0xece2 <_wb+0x8>
;     if (is_read) {
    e9a1: 3a aa f3     	ld	a,($f3aa)               ; 0xf3aa <_is_read>
    e9a4: ee 01        	xor	$1
    e9a6: 20 29        	jr	nz,$e9d1
;         memcpy(cpm_dma_addr, &hstbuf[(word)(cpm_sector & deblock_mask) << 7], 128);
    e9a8: 2a e6 ec     	ld	hl,($ece6)              ; 0xece6 <_cpm_dma_addr>
    e9ab: eb           	ex	de,hl
    e9ac: 2a ea ec     	ld	hl,($ecea)              ; 0xecea <_cpm_sector>
    e9af: 4d           	ld	c,l
    e9b0: 44           	ld	b,h
    e9b1: 21 fe ee     	ld	hl,$eefe
    e9b4: 79           	ld	a,c
    e9b5: a6           	and	(hl)
    e9b6: 6f           	ld	l,a
    e9b7: 26 00        	ld	h,$0
    e9b9: 29           	add	hl,hl
    e9ba: 29           	add	hl,hl
    e9bb: 29           	add	hl,hl
    e9bc: 29           	add	hl,hl
    e9bd: 29           	add	hl,hl
    e9be: 29           	add	hl,hl
    e9bf: 29           	add	hl,hl
    e9c0: 4d           	ld	c,l
    e9c1: 44           	ld	b,h
    e9c2: 21 a2 f1     	ld	hl,$f1a2
    e9c5: 09           	add	hl,bc
    e9c6: 4d           	ld	c,l
    e9c7: 44           	ld	b,h
    e9c8: 21 80 00     	ld	hl,$80
    e9cb: e5           	push	hl
    e9cc: eb           	ex	de,hl
    e9cd: 59           	ld	e,c
    e9ce: 50           	ld	d,b
    e9cf: 18 29        	jr	$e9fa
;         hostbuf_dirty = 1;
    e9d1: 3e 01        	ld	a,$1
    e9d3: 32 e2 ec     	ld	($ece2),a               ; 0xece2 <_wb+0x8>
;         memcpy(&hstbuf[(word)(cpm_sector & deblock_mask) << 7], cpm_dma_addr, 128);
    e9d6: 2a ea ec     	ld	hl,($ecea)              ; 0xecea <_cpm_sector>
    e9d9: eb           	ex	de,hl
    e9da: 21 fe ee     	ld	hl,$eefe
    e9dd: 7b           	ld	a,e
    e9de: a6           	and	(hl)
    e9df: 6f           	ld	l,a
    e9e0: 26 00        	ld	h,$0
    e9e2: 29           	add	hl,hl
    e9e3: 29           	add	hl,hl
    e9e4: 29           	add	hl,hl
    e9e5: 29           	add	hl,hl
    e9e6: 29           	add	hl,hl
    e9e7: 29           	add	hl,hl
    e9e8: 29           	add	hl,hl
    e9e9: eb           	ex	de,hl
    e9ea: 21 a2 f1     	ld	hl,$f1a2
    e9ed: 19           	add	hl,de
    e9ee: 4d           	ld	c,l
    e9ef: 44           	ld	b,h
    e9f0: 2a e6 ec     	ld	hl,($ece6)              ; 0xece6 <_cpm_dma_addr>
    e9f3: eb           	ex	de,hl
    e9f4: 21 80 00     	ld	hl,$80
    e9f7: e5           	push	hl
    e9f8: 69           	ld	l,c
    e9f9: 60           	ld	h,b
    e9fa: cd 11 eb     	call	$eb11
;     if (disk_error) {
    e9fd: 3a e3 ec     	ld	a,($ece3)               ; 0xece3 <_wb+0x9>
    ea00: b7           	or	a
    ea01: 28 04        	jr	z,$ea07
;         hostbuf_valid = 0;
    ea03: af           	xor	a
    ea04: 32 e1 ec     	ld	($ece1),a               ; 0xece1 <_wb+0x7>
;     if (write_type == WRDIR && !disk_error) {
    ea07: 3a ac f3     	ld	a,($f3ac)               ; 0xf3ac <_write_type>
    ea0a: fe 01        	cp	$1
    ea0c: 20 0d        	jr	nz,$ea1b
    ea0e: 3a e3 ec     	ld	a,($ece3)               ; 0xece3 <_wb+0x9>
    ea11: b7           	or	a
    ea12: 20 07        	jr	nz,$ea1b
;         hostbuf_dirty = 0;
    ea14: af           	xor	a
    ea15: 32 e2 ec     	ld	($ece2),a               ; 0xece2 <_wb+0x8>
;         wrthst();
    ea18: cd 0e e2     	call	$e20e
;         byte err = disk_error;
    ea1b: 3a e3 ec     	ld	a,($ece3)               ; 0xece3 <_wb+0x9>
    ea1e: 57           	ld	d,a
;         disk_error = 0;
    ea1f: af           	xor	a
    ea20: 32 e3 ec     	ld	($ece3),a               ; 0xece3 <_wb+0x9>
;         return err;
    ea23: 7a           	ld	a,d
    ea24: c9           	ret

0000ea25 <_fdc_read>:
; DEFPORT(fdc_status,   PORT_FDC_STATUS)
    ea25: db 04        	in	a,($4)
    ea27: fe c0        	cp	$c0
    ea29: 38 fa        	jr	c,$ea25
; DEFPORT(fdc_data,     PORT_FDC_DATA)
    ea2b: db 05        	in	a,($5)
;     return port_in(fdc_data);
    ea2d: c9           	ret

0000ea2e <_bios_boot_shim>:
    ea2e: 31 00 f5     	ld	sp,$f500
    ea31: c3 8f da     	jp	$da8f

0000ea34 <_bios_wboot_shim>:
    ea34: 31 00 f5     	ld	sp,$f500
    ea37: c3 f9 da     	jp	$daf9

0000ea3a <_jump_ccp>:
    ea3a: 4f           	ld	c,a
    ea3b: c3 00 c4     	jp	$c400

0000ea3e <_bios_conout_shim>:
    ea3e: 79           	ld	a,c
    ea3f: c3 1b dd     	jp	$dd1b

0000ea42 <_bios_list_shim>:
    ea42: 79           	ld	a,c
    ea43: c3 1b e1     	jp	$e11b

0000ea46 <_bios_write_shim>:
    ea46: 79           	ld	a,c
    ea47: c3 4b e2     	jp	$e24b

0000ea4a <_bios_punch_shim>:
    ea4a: e5           	push	hl
    ea4b: 79           	ld	a,c
    ea4c: cd 53 e1     	call	$e153
    ea4f: e1           	pop	hl
    ea50: c9           	ret

0000ea51 <_bios_settrk_shim>:
    ea51: ed 43 e8 ec  	ld	($ece8),bc              ; 0xece8 <_cpm_track>
    ea55: c9           	ret

0000ea56 <_bios_setsec_shim>:
    ea56: ed 43 ea ec  	ld	($ecea),bc              ; 0xecea <_cpm_sector>
    ea5a: c9           	ret

0000ea5b <_bios_setdma_shim>:
    ea5b: ed 43 e6 ec  	ld	($ece6),bc              ; 0xece6 <_cpm_dma_addr>
    ea5f: c9           	ret

0000ea60 <_bios_seldsk_shim>:
    ea60: 79           	ld	a,c
    ea61: cd 67 db     	call	$db67
    ea64: eb           	ex	de,hl
    ea65: c9           	ret

0000ea66 <_bios_sectran_shim>:
    ea66: 60           	ld	h,b
    ea67: 69           	ld	l,c
    ea68: c9           	ret

0000ea69 <_bios_reader_shim>:
    ea69: e5           	push	hl
    ea6a: cd 7b e1     	call	$e17b
    ea6d: e1           	pop	hl
    ea6e: 4f           	ld	c,a
    ea6f: c9           	ret

0000ea70 <_bios_reads_shim>:
    ea70: e5           	push	hl
    ea71: cd e5 e1     	call	$e1e5
    ea74: e1           	pop	hl
    ea75: 4f           	ld	c,a
    ea76: c9           	ret

0000ea77 <_bios_wfitr_shim>:
    ea77: cd 7e da     	call	$da7e
    ea7a: 3a 8d f0     	ld	a,($f08d)               ; 0xf08d <_fdc_result>
    ea7d: 47           	ld	b,a
    ea7e: 3a 8e f0     	ld	a,($f08e)               ; 0xf08e <_fdc_result+0x1>
    ea81: 4f           	ld	c,a
    ea82: c9           	ret

0000ea83 <_bios_linsel_shim>:
    ea83: 32 26 ef     	ld	($ef26),a               ; 0xef26 <_ls_port>
    ea86: 78           	ld	a,b
    ea87: 32 25 ef     	ld	($ef25),a               ; 0xef25 <_ls_line>
    ea8a: c3 22 e3     	jp	$e322

0000ea8d <_bios_exit_shim>:
    ea8d: 22 e5 ff     	ld	($ffe5),hl              ; 0xffe5 <__sfrend_sec_rw+0xc07>
    ea90: eb           	ex	de,hl
    ea91: 22 df ff     	ld	($ffdf),hl              ; 0xffdf <__sfrend_sec_rw+0xc01>
    ea94: c9           	ret

0000ea95 <_bios_clock_shim>:
    ea95: b7           	or	a
    ea96: 28 0a        	jr	z,$eaa2
    ea98: f3           	di
    ea99: ed 5b fc ff  	ld	de,($fffc)              ; 0xfffc <__sfrend_sec_rw+0xc1e>
    ea9d: 2a fe ff     	ld	hl,($fffe)              ; 0xfffe <__sfrend_sec_rw+0xc20>
    eaa0: fb           	ei
    eaa1: c9           	ret
    eaa2: ed 53 fc ff  	ld	($fffc),de              ; 0xfffc <__sfrend_sec_rw+0xc1e>
    eaa6: 22 fe ff     	ld	($fffe),hl              ; 0xfffe <__sfrend_sec_rw+0xc20>
    eaa9: c9           	ret

0000eaaa <_set_i_reg>:
    eaaa: ed 47        	ld	i,a
    eaac: c9           	ret

0000eaad <_isr_crt_wrapper>:
    eaad: ed 73 3d ef  	ld	($ef3d),sp              ; 0xef3d <_sp_sav>
    eab1: 31 00 f6     	ld	sp,$f600
    eab4: f5           	push	af
    eab5: c5           	push	bc
    eab6: d5           	push	de
    eab7: e5           	push	hl
    eab8: cd a9 e3     	call	$e3a9
    eabb: e1           	pop	hl
    eabc: d1           	pop	de
    eabd: c1           	pop	bc
    eabe: f1           	pop	af
    eabf: ed 7b 3d ef  	ld	sp,($ef3d)              ; 0xef3d <_sp_sav>
    eac3: fb           	ei
    eac4: ed 4d        	reti

0000eac6 <_isr_floppy_wrapper>:
    eac6: ed 73 3d ef  	ld	($ef3d),sp              ; 0xef3d <_sp_sav>
    eaca: 31 00 f6     	ld	sp,$f600
    eacd: f5           	push	af
    eace: c5           	push	bc
    eacf: d5           	push	de
    ead0: e5           	push	hl
    ead1: cd 73 e4     	call	$e473
    ead4: e1           	pop	hl
    ead5: d1           	pop	de
    ead6: c1           	pop	bc
    ead7: f1           	pop	af
    ead8: ed 7b 3d ef  	ld	sp,($ef3d)              ; 0xef3d <_sp_sav>
    eadc: fb           	ei
    eadd: ed 4d        	reti

0000eadf <_isr_pio_kbd_wrapper>:
    eadf: ed 73 3d ef  	ld	($ef3d),sp              ; 0xef3d <_sp_sav>
    eae3: 31 00 f6     	ld	sp,$f600
    eae6: f5           	push	af
    eae7: c5           	push	bc
    eae8: d5           	push	de
    eae9: e5           	push	hl
    eaea: cd 4f e4     	call	$e44f
    eaed: e1           	pop	hl
    eaee: d1           	pop	de
    eaef: c1           	pop	bc
    eaf0: f1           	pop	af
    eaf1: ed 7b 3d ef  	ld	sp,($ef3d)              ; 0xef3d <_sp_sav>
    eaf5: fb           	ei
    eaf6: ed 4d        	reti

0000eaf8 <_isr_sio_a_rx_wrapper>:
    eaf8: ed 73 3d ef  	ld	($ef3d),sp              ; 0xef3d <_sp_sav>
    eafc: 31 00 f6     	ld	sp,$f600
    eaff: f5           	push	af
    eb00: c5           	push	bc
    eb01: d5           	push	de
    eb02: e5           	push	hl
    eb03: cd 4a e5     	call	$e54a
    eb06: e1           	pop	hl
    eb07: d1           	pop	de
    eb08: c1           	pop	bc
    eb09: f1           	pop	af
    eb0a: ed 7b 3d ef  	ld	sp,($ef3d)              ; 0xef3d <_sp_sav>
    eb0e: fb           	ei
    eb0f: ed 4d        	reti

0000eb11 <_memcpy>:
    eb11: fd e1        	pop	iy
    eb13: c1           	pop	bc
    eb14: eb           	ex	de,hl
    eb15: 78           	ld	a,b
    eb16: b1           	or	c
    eb17: 28 02        	jr	z,$eb1b
    eb19: ed b0        	ldir
    eb1b: fd e9        	jp	(iy)

0000eb1d <_memset>:
    eb1d: fd e1        	pop	iy
    eb1f: c1           	pop	bc
    eb20: 78           	ld	a,b
    eb21: b1           	or	c
    eb22: 28 0b        	jr	z,$eb2f
    eb24: 73           	ld	(hl),e
    eb25: 0b           	dec	bc
    eb26: 78           	ld	a,b
    eb27: b1           	or	c
    eb28: 28 05        	jr	z,$eb2f
    eb2a: 54           	ld	d,h
    eb2b: 5d           	ld	e,l
    eb2c: 13           	inc	de
    eb2d: ed b0        	ldir
    eb2f: fd e9        	jp	(iy)

0000eb31 <_lddr_copy>:
    eb31: fd e1        	pop	iy
    eb33: c1           	pop	bc
    eb34: ed b8        	lddr
    eb36: fd e9        	jp	(iy)

0000eb38 <__call_iy>:
    eb38: fd e9        	jp	(iy)

0000eb3a <___umodqi3>:
    eb3a: 43           	ld	b,e
    eb3b: b7           	or	a
    eb3c: 28 04        	jr	z,$eb42
    eb3e: 90           	sub	b
    eb3f: 30 fd        	jr	nc,$eb3e
    eb41: 80           	add	a,b
    eb42: c9           	ret
